(lp0
ccopy_reg
_reconstructor
p1
(csympy.matrices.matrices
Matrix
p2
c__builtin__
object
p3
Ntp4
Rp5
(dp6
S'rows'
p7
I4
sS'cols'
p8
I4
sS'mat'
p9
(lp10
g1
(csympy.core.add
Add
p11
g3
Ntp12
Rp13
(dp14
S'_a_inprogress'
p15
(lp16
sS'_mhash'
p17
I1820462997070409093
sS'_assume_type_keys'
p18
NsS'_args'
p19
(g1
(csympy.core.numbers
NegativeOne
p20
g3
Ntp21
Rp22
(dp23
S'q'
p24
I1
sS'p'
p25
I-1
sg15
(lp26
sg17
I7661115593229879962
sg18
Nsg19
(tsS'_assumptions'
p27
(dp28
S'nonpositive'
p29
I01
sS'unbounded'
p30
I00
sS'zero'
p31
I00
sS'odd'
p32
I01
sS'nonzero'
p33
I01
sS'commutative'
p34
I01
sS'positive'
p35
I00
sS'noninteger'
p36
I00
sS'negative'
p37
I01
sS'complex'
p38
I01
sS'rational'
p39
I01
sS'finite'
p40
I01
sS'real'
p41
I01
sS'even'
p42
I00
sS'comparable'
p43
I01
sS'irrational'
p44
I00
sS'composite'
p45
I00
sS'bounded'
p46
I01
sS'integer'
p47
I01
sS'imaginary'
p48
I00
sS'prime'
p49
I00
sS'nonnegative'
p50
I00
sS'infinitesimal'
p51
I00
ssbg1
(csympy.core.mul
Mul
p52
g3
Ntp53
Rp54
(dp55
g15
(lp56
sg17
I8578499078454407942
sg18
Nsg19
(g1
(csympy.core.numbers
Integer
p57
g3
Ntp58
Rp59
(dp60
g24
I1
sg25
I2
sg15
(lp61
sg17
I6250422013836517545
sg18
Nsg19
(tsg27
(dp62
S'nonpositive'
p63
I00
sg30
I00
sg31
I00
sg32
I00
sg33
I01
sg34
I01
sg35
I01
sg36
I00
sS'negative'
p64
I00
sg38
I01
sg39
I01
sg40
I01
sg41
I01
sS'even'
p65
I01
sg43
I01
sg44
I00
sg46
I01
sg47
I01
sg48
I00
sg49
NsS'nonnegative'
p66
I01
sg51
I00
ssbg1
(csympy.core.symbol
Symbol
p67
g3
Ntp68
Rp69
(dp70
g15
(lp71
sS'name'
p72
S'M0'
p73
sg18
Nsg19
(tsg27
(dp74
g41
Nsg43
I00
sS'irrational'
p75
Nsg29
Nsg35
NsS'negative'
p76
Nsg66
Nsg46
Nsg47
NsS'imaginary'
p77
NssS'is_commutative'
p78
I01
sg17
I8335025584398500503
sbg1
(g67
g3
Ntp79
Rp80
(dp81
g15
(lp82
sg72
S'r'
p83
sg18
Nsg19
(tsg27
(dp84
g41
NsS'even'
p85
Nsg43
I00
sg75
Nsg29
Nsg35
Nsg76
Nsg66
Nsg46
Nsg47
Nsg77
Nssg78
I01
sg17
I4904348373421370565
sbg1
(csympy.core.power
Pow
p86
g3
Ntp87
Rp88
(dp89
g15
(lp90
sg18
Nsg19
(g1
(g11
g3
Ntp91
Rp92
(dp93
g15
(lp94
sg17
I7972180268612461591
sg18
Nsg19
(g1
(g52
g3
Ntp95
Rp96
(dp97
g15
(lp98
sg17
I5878318922862555768
sg18
Nsg19
(g1
(g86
g3
Ntp99
Rp100
(dp101
g15
(lp102
sg18
Nsg19
(g1
(g67
g3
Ntp103
Rp104
(dp105
g15
(lp106
sg72
S'a0'
p107
sg18
Nsg19
(tsg27
(dp108
g41
Nsg85
Nsg43
I00
sg75
Nsg29
Nsg35
Nsg76
Nsg66
Nsg46
Nsg47
Nsg77
Nssg78
I01
sg17
I-5733508355404317325
sbg59
tp109
sg27
(dp110
g41
Nsg85
Nsg43
I00
sg75
Nsg29
Nsg35
Nsg76
Nsg66
Nsg46
NsS'unbounded'
p111
Nsg47
Nsg77
NsS'odd'
p112
Nssg78
I01
sg17
I-7672832265458886948
sbg1
(g86
g3
Ntp113
Rp114
(dp115
g15
(lp116
sg18
Nsg19
(g1
(g67
g3
Ntp117
Rp118
(dp119
g15
(lp120
sg72
S'chi'
p121
sg18
Nsg19
(tsg27
(dp122
g41
Nsg85
Nsg43
I00
sg29
Nsg35
Nsg76
Nsg66
Nsg46
Nsg47
Nssg78
I01
sg17
I-6094193713276046405
sbg59
tp123
sg27
(dp124
g85
Nsg41
Nsg43
I00
sg75
Nsg29
Nsg35
Nsg76
Nsg66
Nsg46
Nsg47
Nsg77
Nsg112
Nssg78
I01
sg17
I-2467562158527919484
sbtp125
sg27
(dp126
g41
Nsg85
Nsg43
I00
sg34
I01
sg29
Nsg35
Nsg76
Nsg66
Nsg46
Nsg111
Nsg47
Nsg77
Nsg112
Nsg75
Nssg78
I01
sbg1
(g86
g3
Ntp127
Rp128
(dp129
g15
(lp130
sg18
Nsg19
(g80
g59
tp131
sg27
(dp132
g85
Nsg41
Nsg43
I00
sg75
Nsg29
Nsg111
Nsg76
Nsg66
Nsg46
Nsg35
Nsg47
Nsg77
Nsg112
Nssg78
I01
sg17
I6254576416280850438
sbtp133
sg27
(dp134
g41
Nsg85
Nsg43
I00
sg34
I01
sg29
Nsg35
Nsg76
Nsg66
Nsg46
Nsg47
Nsg77
Nsg112
Nsg75
Nssg78
I01
sbg22
tp135
sg27
(dp136
sg78
I01
sg17
I737419069248247761
sbtp137
sg27
(dp138
sg78
I01
sbtp139
sg27
(dp140
sg78
I01
sbag1
(csympy.core.numbers
One
p141
g3
Ntp142
Rp143
(dp144
g24
I1
sg25
I1
sg15
(lp145
sg17
I-237126060543571952
sg18
Nsg19
(tsg27
(dp146
g41
I01
sg33
I01
sg43
I01
sS'irrational'
p147
I00
sS'nonpositive'
p148
I00
sS'composite'
p149
I00
sg30
I00
sg42
I00
sS'zero'
p150
I00
sg46
I01
sS'integer'
p151
I01
sg48
I00
sg38
I01
sg32
I01
sS'prime'
p152
I01
sg34
I01
sS'positive'
p153
I01
sS'noninteger'
p154
I00
sS'negative'
p155
I00
sg66
I01
sg51
I00
sS'rational'
p156
I01
sg40
I01
ssbag1
(csympy.core.numbers
Zero
p157
g3
Ntp158
Rp159
(dp160
g24
I1
sg25
I0
sg15
(lp161
sg17
I-3157700006611994746
sg18
Nsg19
(tsg27
(dp162
g29
I01
sg30
I00
sS'zero'
p163
I01
sS'odd'
p164
I00
sS'even'
p165
I01
sg34
I01
sg35
I00
sS'noninteger'
p166
I00
sg76
I00
sg38
I01
sg156
I01
sS'finite'
p167
I00
sg41
I01
sS'nonzero'
p168
I00
sg43
I01
sS'irrational'
p169
I00
sS'composite'
p170
I00
sg46
I01
sg151
I01
sg48
I00
sg152
I00
sg66
I01
sS'infinitesimal'
p171
I01
ssbag1
(g11
g3
Ntp172
Rp173
(dp174
g15
(lp175
sg17
I3407355406933996884
sg18
Nsg19
(g1
(g52
g3
Ntp176
Rp177
(dp178
g15
(lp179
sg17
I494690315824990114
sg18
Nsg19
(g104
g1
(g11
g3
Ntp180
Rp181
(dp182
g15
(lp183
sg17
I-7536844453586074897
sg18
Nsg19
(g143
g1
(g52
g3
Ntp184
Rp185
(dp186
g15
(lp187
sg17
I-6486920875239916410
sg18
Nsg19
(g22
g114
tp188
sg27
(dp189
g85
Nsg41
Nsg43
I00
sg34
I01
sg29
Nsg35
Nsg76
Nsg66
Nsg46
Nsg111
Nsg47
Nsg77
Nsg112
Nsg75
Nssg78
I01
sbtp190
sg27
(dp191
g41
Nsg85
Nsg43
I00
sg34
I01
sg29
Nsg35
Nsg76
Nsg66
Nsg46
Nsg47
Nsg77
Nsg112
Nsg75
Nssg78
I01
sbtp192
sg27
g138
sg78
I01
sbg1
(g52
g3
Ntp193
Rp194
(dp195
g15
(lp196
sg17
I6341658120338960389
sg18
Nsg19
(g104
g181
g1
(g11
g3
Ntp197
Rp198
(dp199
g15
(lp200
sg17
I1820462997070409093
sg18
Nsg19
(g22
g1
(g52
g3
Ntp201
Rp202
(dp203
g15
(lp204
sg17
I8578499078454407942
sg18
Nsg19
(g59
g69
g80
g88
tp205
sg27
g138
sg78
I01
sbtp206
sg27
g140
sg78
I01
sbtp207
sg27
g138
sg78
I01
sbtp208
sg27
g140
sg78
I01
sbag143
ag159
ag159
ag1
(g52
g3
Ntp209
Rp210
(dp211
g15
(lp212
sg17
I494690315824990114
sg18
Nsg19
(g104
g181
tp213
sg27
g138
sg78
I01
sbag159
ag159
ag1
(g52
g3
Ntp214
Rp215
(dp216
g15
(lp217
sg17
I8849387781779474484
sg18
Nsg19
(g1
(g86
g3
Ntp218
Rp219
(dp220
g15
(lp221
sg18
Nsg19
(g181
g22
tp222
sg27
g136
sg78
I01
sg17
I6935305653700128521
sbg92
tp223
sg27
g138
sg78
I01
sbag159
ag173
ag210
ag159
ag1
(g11
g3
Ntp224
Rp225
(dp226
g15
(lp227
sg17
I-326428889640950109
sg18
Nsg19
(g1
(g52
g3
Ntp228
Rp229
(dp230
g15
(lp231
sg17
I-9156022296603752571
sg18
Nsg19
(g100
g1
(g86
g3
Ntp232
Rp233
(dp234
g15
(lp235
sg18
Nsg19
(g181
g59
tp236
sg27
(dp237
g85
Nsg41
Nsg43
I00
sg75
Nsg29
Nsg35
Nsg76
Nsg66
Nsg47
Nsg77
Nsg112
Nssg78
I01
sg17
I-1461244363211243680
sbg198
tp238
sg27
g138
sg78
I01
sbg1
(g52
g3
Ntp239
Rp240
(dp241
g15
(lp242
sg17
I-7705734381309695571
sg18
Nsg19
(g59
g100
g233
tp243
sg27
g138
sg78
I01
sbg1
(g52
g3
Ntp244
Rp245
(dp246
g15
(lp247
sg17
I8516506826710323270
sg18
Nsg19
(g181
g92
tp248
sg27
g138
sg78
I01
sbtp249
sg27
g140
sg78
I01
sbasbag1
(g2
g3
Ntp250
Rp251
(dp252
g7
I4
sg8
I4
sg9
(lp253
g1
(g52
g3
Ntp254
Rp255
(dp256
g15
(lp257
sg17
I-5645368012444118251
sg18
Nsg19
(g22
g100
g88
g1
(g11
g3
Ntp258
Rp259
(dp260
g15
(lp261
sg17
I1655117123997053020
sg18
Nsg19
(g143
g118
tp262
sg27
g140
sg78
I01
sbg1
(g11
g3
Ntp263
Rp264
(dp265
g15
(lp266
sg17
I-3911820925965056854
sg18
Nsg19
(g22
g118
tp267
sg27
g140
sg78
I01
sbtp268
sg27
g138
sg78
I01
sbag1
(g52
g3
Ntp269
Rp270
(dp271
g15
(lp272
sg17
I497772982959898160
sg18
Nsg19
(g88
g1
(g11
g3
Ntp273
Rp274
(dp275
g15
(lp276
sg17
I258429000617912083
sg18
Nsg19
(g1
(g86
g3
Ntp277
Rp278
(dp279
g15
(lp280
sg18
Nsg19
(g104
g59
tp281
sg27
g136
sg78
I01
sg17
I-7672832265458886948
sbg1
(g86
g3
Ntp282
Rp283
(dp284
g15
(lp285
sg18
Nsg19
(g80
g59
tp286
sg27
(dp287
g41
Nsg85
Nsg43
I00
sg35
Nsg76
Nsg47
Nsg112
Nssg78
I01
sg17
I6254576416280850438
sbtp288
sg27
g140
sg78
I01
sbtp289
sg27
g138
sg78
I01
sbag159
ag1
(g52
g3
Ntp290
Rp291
(dp292
g15
(lp293
sg17
I7306206343840181872
sg18
Nsg19
(g22
g104
g88
tp294
sg27
g138
sg78
I01
sbag270
ag1
(g52
g3
Ntp295
Rp296
(dp297
g15
(lp298
sg17
I1876622434133532281
sg18
Nsg19
(g88
g1
(g11
g3
Ntp299
Rp300
(dp301
g15
(lp302
sg17
I-94206435720323360
sg18
Nsg19
(g100
g1
(g52
g3
Ntp303
Rp304
(dp305
g15
(lp306
sg17
I-2102617329346163989
sg18
Nsg19
(g1
(g57
g3
Ntp307
Rp308
(dp309
g24
I1
sg25
I-2
sg15
(lp310
sg17
I-6250424536232650227
sg18
Nsg19
(tsg27
(dp311
g29
I01
sg30
I00
sg31
I00
sg32
I00
sg33
I01
sg34
I01
sg35
I00
sg36
I00
sg37
I01
sg38
I01
sg39
I01
sg40
I01
sg41
I01
sg65
I01
sg43
I01
sg44
I00
sg45
I00
sg46
I01
sg47
I01
sg48
I00
sg49
I00
sg50
I00
sg51
I00
ssbg69
g80
tp312
sg27
g138
sg78
I01
sbg128
tp313
sg27
g140
sg78
I01
sbtp314
sg27
g138
sg78
I01
sbag159
ag291
ag159
ag159
ag1
(g52
g3
Ntp315
Rp316
(dp317
g15
(lp318
sg17
I-266175453779354665
sg18
Nsg19
(g22
g88
g259
g264
tp319
sg27
g138
sg78
I01
sbag159
ag291
ag291
ag159
ag1
(g52
g3
Ntp320
Rp321
(dp322
g15
(lp323
sg17
I-752535663659728149
sg18
Nsg19
(g22
g1
(g86
g3
Ntp324
Rp325
(dp326
g15
(lp327
sg18
Nsg19
(g259
g22
tp328
sg27
g136
sg78
I01
sg17
I-7470529303661246258
sbg1
(g86
g3
Ntp329
Rp330
(dp331
g15
(lp332
sg18
Nsg19
(g264
g22
tp333
sg27
g136
sg78
I01
sg17
I-8555722711091903248
sbg88
tp334
sg27
g138
sg78
I01
sbasba(lp335
(lp336
(lp337
g1
(g52
g3
Ntp338
Rp339
(dp340
g15
(lp341
sg17
I8437769274107804421
sg18
Nsg19
(g69
g1
(g86
g3
Ntp342
Rp343
(dp344
g15
(lp345
sg18
Nsg19
(g92
g1
(g57
g3
Ntp346
Rp347
(dp348
g24
I1
sg25
I-3
sg15
(lp349
sg17
I-6250423275033321306
sg18
Nsg19
(tsg27
(dp350
g41
I01
sg33
I01
sg43
I01
sg34
I01
sg51
I00
sg30
I00
sg36
I00
sg31
I00
sg38
I01
sg46
I01
sg39
I01
sg47
I01
sg48
I00
sg40
I01
sg44
I00
ssbtp351
sg27
g136
sg78
I01
sg17
I-3541813867017155483
sbg274
g1
(g11
g3
Ntp352
Rp353
(dp354
g15
(lp355
sg17
I-2525447630211756728
sg18
Nsg19
(g1
(g52
g3
Ntp356
Rp357
(dp358
g15
(lp359
sg17
I-4112574689457036434
sg18
Nsg19
(g104
g118
tp360
sg27
g138
sg78
I01
sbg80
tp361
sg27
g140
sg78
I01
sbg1
(g11
g3
Ntp362
Rp363
(dp364
g15
(lp365
sg17
I-319477848523908276
sg18
Nsg19
(g1
(g52
g3
Ntp366
Rp367
(dp368
g15
(lp369
sg17
I-4345396116249402598
sg18
Nsg19
(g22
g104
g118
tp370
sg27
g138
sg78
I01
sbg80
tp371
sg27
g140
sg78
I01
sbtp372
sg27
g138
sg78
I01
sbag159
ag1
(g52
g3
Ntp373
Rp374
(dp375
g15
(lp376
sg17
I4406401447064584546
sg18
Nsg19
(g59
g69
g118
g80
g100
g1
(g86
g3
Ntp377
Rp378
(dp379
g15
(lp380
sg18
Nsg19
(g92
g308
tp381
sg27
g136
sg78
I01
sg17
I-2431970618861924092
sbtp382
sg27
g138
sg78
I01
sbag1
(g52
g3
Ntp383
Rp384
(dp385
g15
(lp386
sg17
I2322988261049706166
sg18
Nsg19
(g22
g69
g104
g343
g259
g264
g274
g353
g363
tp387
sg27
g138
sg78
I01
sbaa(lp388
g159
ag159
ag1
(g52
g3
Ntp389
Rp390
(dp391
g15
(lp392
sg17
I7002936646402425102
sg18
Nsg19
(g118
g100
g88
tp393
sg27
g138
sg78
I01
sbag1
(g52
g3
Ntp394
Rp395
(dp396
g15
(lp397
sg17
I5960199491837656753
sg18
Nsg19
(g104
g80
g88
g259
g264
tp398
sg27
g138
sg78
I01
sbaa(lp399
g1
(g52
g3
Ntp400
Rp401
(dp402
g15
(lp403
sg17
I4406401447064584546
sg18
Nsg19
(g59
g69
g118
g80
g100
g378
tp404
sg27
g138
sg78
I01
sbag390
ag1
(g52
g3
Ntp405
Rp406
(dp407
g15
(lp408
sg17
I9087901696441433623
sg18
Nsg19
(g80
g325
g330
g88
g274
tp409
sg27
g138
sg78
I01
sbag1
(g52
g3
Ntp410
Rp411
(dp412
g15
(lp413
sg17
I2127942358271109127
sg18
Nsg19
(g308
g69
g118
g80
g1
(g86
g3
Ntp414
Rp415
(dp416
g15
(lp417
sg18
Nsg19
(g104
g1
(g57
g3
Ntp418
Rp419
(dp420
g24
I1
sg25
I3
sg15
(lp421
sg17
I6250420752641848820
sg18
Nsg19
(tsg27
(dp422
g41
I01
sg33
I01
sg43
I01
sg34
I01
sg63
I00
sg30
I00
sg36
I00
sg38
I01
sg66
I01
sg49
Nsg31
I00
sg51
I00
sg46
I01
sg64
I00
sg39
I01
sg35
I01
sg47
I01
sg48
I00
sg40
I01
sg44
I00
ssbtp423
sg27
g136
sg78
I01
sg17
I-9162123298348390705
sbg378
g259
g264
tp424
sg27
g138
sg78
I01
sbaa(lp425
g384
ag395
ag1
(g52
g3
Ntp426
Rp427
(dp428
g15
(lp429
sg17
I2127942358271109127
sg18
Nsg19
(g308
g69
g118
g80
g415
g378
g259
g264
tp430
sg27
g138
sg78
I01
sbag1
(g52
g3
Ntp431
Rp432
(dp433
g15
(lp434
sg17
I5200332611772719377
sg18
Nsg19
(g343
g259
g264
g274
g1
(g11
g3
Ntp435
Rp436
(dp437
g15
(lp438
sg17
I-521081672983897141
sg18
Nsg19
(g1
(g86
g3
Ntp439
Rp440
(dp441
g15
(lp442
sg18
Nsg19
(g80
g1
(g57
g3
Ntp443
Rp444
(dp445
g24
I1
sg25
I5
sg15
(lp446
sg17
I6250428319823841758
sg18
Nsg19
(tsg27
(dp447
g41
I01
sg33
I01
sg43
I01
sg34
I01
sg63
I00
sg30
I00
sg36
I00
sg38
I01
sg66
I01
sg49
Nsg31
I00
sg51
I00
sg46
I01
sg64
I00
sg39
I01
sg35
I01
sg47
I01
sg48
I00
sg40
I01
sg44
I00
ssbtp448
sg27
g136
sg78
I01
sg17
I-7494625244137917265
sbg1
(g52
g3
Ntp449
Rp450
(dp451
g15
(lp452
sg17
I-2220078777818618107
sg18
Nsg19
(g22
g69
g100
g128
tp453
sg27
g138
sg78
I01
sbg1
(g52
g3
Ntp454
Rp455
(dp456
g15
(lp457
sg17
I175275877519318445
sg18
Nsg19
(g80
g1
(g86
g3
Ntp458
Rp459
(dp460
g15
(lp461
sg18
Nsg19
(g104
g1
(g57
g3
Ntp462
Rp463
(dp464
g24
I1
sg25
I4
sg15
(lp465
sg17
I6250429581018510483
sg18
Nsg19
(tsg27
(dp466
g41
I01
sg33
I01
sg43
I01
sg34
I01
sg63
I00
sg30
I00
sg36
I00
sg38
I01
sg66
I01
sg49
Nsg31
I00
sg51
I00
sg46
I01
sg64
I00
sg39
I01
sg35
I01
sg47
I01
sg48
I00
sg40
I01
sg44
I00
ssbtp467
sg27
g136
sg78
I01
sg17
I-925724843673384586
sbg1
(g86
g3
Ntp468
Rp469
(dp470
g15
(lp471
sg18
Nsg19
(g118
g463
tp472
sg27
(dp473
g85
Nsg41
Nsg43
I00
sg35
Nsg76
Nsg66
Nsg47
Nsg112
Nssg78
I01
sg17
I7184276256303442894
sbtp474
sg27
g138
sg78
I01
sbg1
(g52
g3
Ntp475
Rp476
(dp477
g15
(lp478
sg17
I739698640200333389
sg18
Nsg19
(g69
g459
g114
tp479
sg27
g138
sg78
I01
sbg1
(g52
g3
Ntp480
Rp481
(dp482
g15
(lp483
sg17
I5875330258173091321
sg18
Nsg19
(g69
g100
g114
g128
tp484
sg27
g138
sg78
I01
sbg1
(g52
g3
Ntp485
Rp486
(dp487
g15
(lp488
sg17
I7059933432222331420
sg18
Nsg19
(g59
g100
g114
g1
(g86
g3
Ntp489
Rp490
(dp491
g15
(lp492
sg18
Nsg19
(g80
g419
tp493
sg27
g136
sg78
I01
sg17
I4704113089321139593
sbtp494
sg27
g138
sg78
I01
sbg1
(g52
g3
Ntp495
Rp496
(dp497
g15
(lp498
sg17
I7319179077211209423
sg18
Nsg19
(g22
g69
g459
g469
tp499
sg27
g138
sg78
I01
sbtp500
sg27
g140
sg78
I01
sbtp501
sg27
g138
sg78
I01
sbaaa(lp502
(lp503
g1
(g52
g3
Ntp504
Rp505
(dp506
g15
(lp507
sg17
I-3675855418096535768
sg18
Nsg19
(g69
g343
g353
g363
g1
(g11
g3
Ntp508
Rp509
(dp510
g15
(lp511
sg17
I-94206435720323360
sg18
Nsg19
(g278
g1
(g52
g3
Ntp512
Rp513
(dp514
g15
(lp515
sg17
I-2102617329346163989
sg18
Nsg19
(g308
g69
g80
tp516
sg27
g138
sg78
I01
sbg283
tp517
sg27
g140
sg78
I01
sbtp518
sg27
g138
sg78
I01
sbag1
(g52
g3
Ntp519
Rp520
(dp521
g15
(lp522
sg17
I6377161263244744549
sg18
Nsg19
(g22
g69
g378
g353
g363
tp523
sg27
g138
sg78
I01
sbag159
ag1
(g52
g3
Ntp524
Rp525
(dp526
g15
(lp527
sg17
I-3442085614944330853
sg18
Nsg19
(g22
g69
g104
g343
g259
g264
g353
g363
g509
tp528
sg27
g138
sg78
I01
sbaa(lp529
g520
ag159
ag390
ag1
(g52
g3
Ntp530
Rp531
(dp532
g15
(lp533
sg17
I-7769180233329048426
sg18
Nsg19
(g104
g378
g259
g264
g1
(g11
g3
Ntp534
Rp535
(dp536
g15
(lp537
sg17
I3313784138998940013
sg18
Nsg19
(g1
(g52
g3
Ntp538
Rp539
(dp540
g15
(lp541
sg17
I-2933772757130119913
sg18
Nsg19
(g22
g69
g100
g114
tp542
sg27
g138
sg78
I01
sbg1
(g52
g3
Ntp543
Rp544
(dp545
g15
(lp546
sg17
I4376638859666866101
sg18
Nsg19
(g80
g100
g114
tp547
sg27
g138
sg78
I01
sbg1
(g86
g3
Ntp548
Rp549
(dp550
g15
(lp551
sg18
Nsg19
(g80
g419
tp552
sg27
g136
sg78
I01
sg17
I4704113089321139593
sbg1
(g52
g3
Ntp553
Rp554
(dp555
g15
(lp556
sg17
I9203095098526920885
sg18
Nsg19
(g69
g128
tp557
sg27
g138
sg78
I01
sbtp558
sg27
g140
sg78
I01
sbtp559
sg27
g138
sg78
I01
sbaa(lp560
g159
ag390
ag1
(g52
g3
Ntp561
Rp562
(dp563
g15
(lp564
sg17
I3708204868272752882
sg18
Nsg19
(g80
g325
g330
g88
g509
tp565
sg27
g138
sg78
I01
sbag159
aa(lp566
g525
ag531
ag159
ag1
(g52
g3
Ntp567
Rp568
(dp569
g15
(lp570
sg17
I-3794703834402835250
sg18
Nsg19
(g343
g259
g264
g509
g436
tp571
sg27
g138
sg78
I01
sbaaa(lp572
(lp573
g1
(g52
g3
Ntp574
Rp575
(dp576
g15
(lp577
sg17
I-8144627867890726449
sg18
Nsg19
(g308
g69
g118
g80
g100
g343
g259
g264
tp578
sg27
g138
sg78
I01
sbag159
ag159
ag1
(g52
g3
Ntp579
Rp580
(dp581
g15
(lp582
sg17
I1423040488557985881
sg18
Nsg19
(g308
g69
g104
g118
g80
g343
g259
g264
g274
tp583
sg27
g138
sg78
I01
sbaa(lp584
g159
ag159
ag1
(g52
g3
Ntp585
Rp586
(dp587
g15
(lp588
sg17
I3108232993457054702
sg18
Nsg19
(g80
g88
tp589
sg27
g138
sg78
I01
sbag1
(g52
g3
Ntp590
Rp591
(dp592
g15
(lp593
sg17
I3721027709522277067
sg18
Nsg19
(g22
g104
g118
g88
g259
g264
tp594
sg27
g138
sg78
I01
sbaa(lp595
g159
ag586
ag1
(g52
g3
Ntp596
Rp597
(dp598
g15
(lp599
sg17
I5459255287141153673
sg18
Nsg19
(g22
g118
g325
g330
g88
g274
tp600
sg27
g138
sg78
I01
sbag159
aa(lp601
g1
(g52
g3
Ntp602
Rp603
(dp604
g15
(lp605
sg17
I1423040488557985881
sg18
Nsg19
(g308
g69
g104
g118
g80
g343
g259
g264
g274
tp606
sg27
g138
sg78
I01
sbag591
ag159
ag1
(g52
g3
Ntp607
Rp608
(dp609
g15
(lp610
sg17
I1652516572121980205
sg18
Nsg19
(g22
g118
g343
g259
g264
g1
(g11
g3
Ntp611
Rp612
(dp613
g15
(lp614
sg17
I5430633520947036097
sg18
Nsg19
(g1
(g86
g3
Ntp615
Rp616
(dp617
g15
(lp618
sg18
Nsg19
(g80
g1
(g57
g3
Ntp619
Rp620
(dp621
g24
I1
sg25
I6
sg15
(lp622
sg17
I6250427058624512837
sg18
Nsg19
(tsg27
(dp623
g41
I01
sg33
I01
sg43
I01
sg34
I01
sg63
I00
sg30
I00
sg36
I00
sg38
I01
sg66
I01
sg49
Nsg31
I00
sg51
I00
sg46
I01
sg64
I00
sg39
I01
sg35
I01
sg47
I01
sg48
I00
sg40
I01
sg44
I00
ssbtp624
sg27
g136
sg78
I01
sg17
I-9054786499779865518
sbg1
(g52
g3
Ntp625
Rp626
(dp627
g15
(lp628
sg17
I-6755444358564891643
sg18
Nsg19
(g463
g69
g100
g490
tp629
sg27
g138
sg78
I01
sbg1
(g52
g3
Ntp630
Rp631
(dp632
g15
(lp633
sg17
I-5241062168079163039
sg18
Nsg19
(g1
(g57
g3
Ntp634
Rp635
(dp636
g24
I1
sg25
I-4
sg15
(lp637
sg17
I-6250422013838652581
sg18
Nsg19
(tsg27
g350
sbg69
g100
g114
g490
tp638
sg27
g138
sg78
I01
sbg1
(g52
g3
Ntp639
Rp640
(dp641
g15
(lp642
sg17
I-1430910928017591231
sg18
Nsg19
(g59
g69
g80
g459
tp643
sg27
g138
sg78
I01
sbg1
(g52
g3
Ntp644
Rp645
(dp646
g15
(lp647
sg17
I-451672071959420175
sg18
Nsg19
(g59
g459
g114
g128
tp648
sg27
g138
sg78
I01
sbg1
(g52
g3
Ntp649
Rp650
(dp651
g15
(lp652
sg17
I4532942127209967616
sg18
Nsg19
(g100
g1
(g86
g3
Ntp653
Rp654
(dp655
g15
(lp656
sg18
Nsg19
(g80
g463
tp657
sg27
g136
sg78
I01
sg17
I-5426258815195040180
sbtp658
sg27
g138
sg78
I01
sbg1
(g52
g3
Ntp659
Rp660
(dp661
g15
(lp662
sg17
I4998943079669865801
sg18
Nsg19
(g59
g100
g114
g654
tp663
sg27
g138
sg78
I01
sbg1
(g52
g3
Ntp664
Rp665
(dp666
g15
(lp667
sg17
I5452916166237743438
sg18
Nsg19
(g1
(g86
g3
Ntp668
Rp669
(dp670
g15
(lp671
sg18
Nsg19
(g104
g620
tp672
sg27
g136
sg78
I01
sg17
I7694762404107264408
sbg469
tp673
sg27
g138
sg78
I01
sbg1
(g52
g3
Ntp674
Rp675
(dp676
g15
(lp677
sg17
I9060958994242864751
sg18
Nsg19
(g308
g69
g80
g459
g469
tp678
sg27
g138
sg78
I01
sbg1
(g52
g3
Ntp679
Rp680
(dp681
g15
(lp682
sg17
I9168279794795781258
sg18
Nsg19
(g459
g469
g128
tp683
sg27
g138
sg78
I01
sbtp684
sg27
g140
sg78
I01
sbtp685
sg27
g138
sg78
I01
sbaaa(lp686
(lp687
g1
(g52
g3
Ntp688
Rp689
(dp690
g15
(lp691
sg17
I-563233551957936867
sg18
Nsg19
(g22
g69
g104
g343
g353
g363
tp692
sg27
g138
sg78
I01
sbag159
ag1
(g52
g3
Ntp693
Rp694
(dp695
g15
(lp696
sg17
I-3469391731276472577
sg18
Nsg19
(g59
g69
g104
g118
g80
g325
g330
g378
tp697
sg27
g138
sg78
I01
sbag1
(g52
g3
Ntp698
Rp699
(dp700
g15
(lp701
sg17
I-786887893589409788
sg18
Nsg19
(g69
g100
g343
g259
g264
g353
g363
tp702
sg27
g138
sg78
I01
sbaa(lp703
g159
ag159
ag1
(g52
g3
Ntp704
Rp705
(dp706
g15
(lp707
sg17
I3310809566352356815
sg18
Nsg19
(g104
g118
g325
g330
g88
tp708
sg27
g138
sg78
I01
sbag1
(g52
g3
Ntp709
Rp710
(dp711
g15
(lp712
sg17
I3108232993457054702
sg18
Nsg19
(g80
g88
tp713
sg27
g138
sg78
I01
sbaa(lp714
g1
(g52
g3
Ntp715
Rp716
(dp717
g15
(lp718
sg17
I-3469391731276472577
sg18
Nsg19
(g59
g69
g104
g118
g80
g325
g330
g378
tp719
sg27
g138
sg78
I01
sbag705
ag1
(g52
g3
Ntp720
Rp721
(dp722
g15
(lp723
sg17
I3341613098582314221
sg18
Nsg19
(g22
g104
g80
g325
g330
g88
tp724
sg27
g138
sg78
I01
sbag1
(g52
g3
Ntp725
Rp726
(dp727
g15
(lp728
sg17
I1144062792850481143
sg18
Nsg19
(g118
g325
g330
g378
g1
(g11
g3
Ntp729
Rp730
(dp731
g15
(lp732
sg17
I-8085219673747096226
sg18
Nsg19
(g1
(g52
g3
Ntp733
Rp734
(dp735
g15
(lp736
sg17
I-7036411360571553965
sg18
Nsg19
(g59
g100
g114
g128
tp737
sg27
g138
sg78
I01
sbg1
(g86
g3
Ntp738
Rp739
(dp740
g15
(lp741
sg18
Nsg19
(g80
g463
tp742
sg27
g136
sg78
I01
sg17
I-5426258815195040180
sbg1
(g52
g3
Ntp743
Rp744
(dp745
g15
(lp746
sg17
I-184792834863381992
sg18
Nsg19
(g459
g469
tp747
sg27
g138
sg78
I01
sbg1
(g52
g3
Ntp748
Rp749
(dp750
g15
(lp751
sg17
I2186077967155859899
sg18
Nsg19
(g59
g69
g80
g100
tp752
sg27
g138
sg78
I01
sbg1
(g52
g3
Ntp753
Rp754
(dp755
g15
(lp756
sg17
I8009781156222885227
sg18
Nsg19
(g308
g69
g80
g100
g114
tp757
sg27
g138
sg78
I01
sbtp758
sg27
g140
sg78
I01
sbtp759
sg27
g138
sg78
I01
sbaa(lp760
g699
ag710
ag726
ag1
(g52
g3
Ntp761
Rp762
(dp763
g15
(lp764
sg17
I6362296064129073443
sg18
Nsg19
(g22
g104
g343
g259
g264
g436
tp765
sg27
g138
sg78
I01
sbaaaa(lp766
(lp767
(lp768
(lp769
g159
ag1
(g52
g3
Ntp770
Rp771
(dp772
g15
(lp773
sg17
I-3101364594759570593
sg18
Nsg19
(g308
g69
g80
g1
(g86
g3
Ntp774
Rp775
(dp776
g15
(lp777
sg18
Nsg19
(g92
g635
tp778
sg27
g136
sg78
I01
sg17
I412925048728248458
sbg1
(g11
g3
Ntp779
Rp780
(dp781
g15
(lp782
sg17
I-1253743808423886942
sg18
Nsg19
(g1
(g52
g3
Ntp783
Rp784
(dp785
g15
(lp786
sg17
I-7604482193509403883
sg18
Nsg19
(g635
g100
g114
g128
tp787
sg27
g138
sg78
I01
sbg739
g1
(g52
g3
Ntp788
Rp789
(dp790
g15
(lp791
sg17
I-184792834863381992
sg18
Nsg19
(g459
g469
tp792
sg27
g138
sg78
I01
sbg1
(g52
g3
Ntp793
Rp794
(dp795
g15
(lp796
sg17
I4089113514455440665
sg18
Nsg19
(g635
g459
g114
tp797
sg27
g138
sg78
I01
sbg1
(g52
g3
Ntp798
Rp799
(dp800
g15
(lp801
sg17
I9197886670596495683
sg18
Nsg19
(g59
g100
g128
tp802
sg27
g138
sg78
I01
sbtp803
sg27
g140
sg78
I01
sbtp804
sg27
g138
sg78
I01
sbag1
(g52
g3
Ntp805
Rp806
(dp807
g15
(lp808
sg17
I-4262956119116663684
sg18
Nsg19
(g635
g69
g118
g100
g775
g274
g1
(g11
g3
Ntp809
Rp810
(dp811
g15
(lp812
sg17
I-6158419513955801010
sg18
Nsg19
(g1
(g52
g3
Ntp813
Rp814
(dp815
g15
(lp816
sg17
I-4381294389665899010
sg18
Nsg19
(g22
g100
g114
tp817
sg27
g138
sg78
I01
sbg1
(g52
g3
Ntp818
Rp819
(dp820
g15
(lp821
sg17
I7223376044428876651
sg18
Nsg19
(g59
g128
tp822
sg27
g138
sg78
I01
sbtp823
sg27
g140
sg78
I01
sbtp824
sg27
g138
sg78
I01
sbag159
aa(lp825
g159
ag159
ag159
ag159
aa(lp826
g159
ag1
(g52
g3
Ntp827
Rp828
(dp829
g15
(lp830
sg17
I-7371323140391756225
sg18
Nsg19
(g308
g69
g118
g100
g343
g1
(g11
g3
Ntp831
Rp832
(dp833
g15
(lp834
sg17
I1502776055085535869
sg18
Nsg19
(g1
(g52
g3
Ntp835
Rp836
(dp837
g15
(lp838
sg17
I-4381294389665899010
sg18
Nsg19
(g22
g100
g114
tp839
sg27
g138
sg78
I01
sbg1
(g52
g3
Ntp840
Rp841
(dp842
g15
(lp843
sg17
I-196000693222926126
sg18
Nsg19
(g419
g128
tp844
sg27
g138
sg78
I01
sbtp845
sg27
g140
sg78
I01
sbtp846
sg27
g138
sg78
I01
sbag1
(g52
g3
Ntp847
Rp848
(dp849
g15
(lp850
sg17
I1919868956576341237
sg18
Nsg19
(g59
g69
g80
g100
g343
g1
(g11
g3
Ntp851
Rp852
(dp853
g15
(lp854
sg17
I2164944863481850413
sg18
Nsg19
(g1
(g52
g3
Ntp855
Rp856
(dp857
g15
(lp858
sg17
I-4370870771353999742
sg18
Nsg19
(g347
g100
g114
tp859
sg27
g138
sg78
I01
sbg283
tp860
sg27
g140
sg78
I01
sbtp861
sg27
g138
sg78
I01
sbag159
aa(lp862
g159
ag1
(g52
g3
Ntp863
Rp864
(dp865
g15
(lp866
sg17
I-5327776684867233334
sg18
Nsg19
(g59
g69
g104
g80
g775
g259
g264
g780
tp867
sg27
g138
sg78
I01
sbag1
(g52
g3
Ntp868
Rp869
(dp870
g15
(lp871
sg17
I-7547014956254107545
sg18
Nsg19
(g308
g69
g104
g118
g775
g274
g1
(g11
g3
Ntp872
Rp873
(dp874
g15
(lp875
sg17
I-2729893312594514938
sg18
Nsg19
(g1
(g52
g3
Ntp876
Rp877
(dp878
g15
(lp879
sg17
I-8573269178426638945
sg18
Nsg19
(g308
g459
g114
tp880
sg27
g138
sg78
I01
sbg1
(g52
g3
Ntp881
Rp882
(dp883
g15
(lp884
sg17
I-7604482193509403883
sg18
Nsg19
(g635
g100
g114
g128
tp885
sg27
g138
sg78
I01
sbg739
g1
(g52
g3
Ntp886
Rp887
(dp888
g15
(lp889
sg17
I-1478726803861836047
sg18
Nsg19
(g463
g100
g128
tp890
sg27
g138
sg78
I01
sbg789
tp891
sg27
g140
sg78
I01
sbtp892
sg27
g138
sg78
I01
sbag159
aaa(lp893
(lp894
g159
ag159
ag159
ag159
aa(lp895
g159
ag159
ag159
ag159
aa(lp896
g159
ag1
(g52
g3
Ntp897
Rp898
(dp899
g15
(lp900
sg17
I-2521093188066171265
sg18
Nsg19
(g308
g118
g80
g100
g378
tp901
sg27
g138
sg78
I01
sbag1
(g52
g3
Ntp902
Rp903
(dp904
g15
(lp905
sg17
I2419065252343441810
sg18
Nsg19
(g100
g378
g353
g363
tp906
sg27
g138
sg78
I01
sbag159
aa(lp907
g159
ag1
(g52
g3
Ntp908
Rp909
(dp910
g15
(lp911
sg17
I-2320245419440559889
sg18
Nsg19
(g22
g104
g378
g259
g264
g353
g363
tp912
sg27
g138
sg78
I01
sbag1
(g52
g3
Ntp913
Rp914
(dp915
g15
(lp916
sg17
I-1368003704201813589
sg18
Nsg19
(g59
g104
g118
g80
g378
g274
tp917
sg27
g138
sg78
I01
sbag159
aaa(lp918
(lp919
g159
ag1
(g52
g3
Ntp920
Rp921
(dp922
g15
(lp923
sg17
I-7371323140391756225
sg18
Nsg19
(g308
g69
g118
g100
g343
g832
tp924
sg27
g138
sg78
I01
sbag1
(g52
g3
Ntp925
Rp926
(dp927
g15
(lp928
sg17
I1919868956576341237
sg18
Nsg19
(g59
g69
g80
g100
g343
g852
tp929
sg27
g138
sg78
I01
sbag159
aa(lp930
g159
ag1
(g52
g3
Ntp931
Rp932
(dp933
g15
(lp934
sg17
I-2521093188066171265
sg18
Nsg19
(g308
g118
g80
g100
g378
tp935
sg27
g138
sg78
I01
sbag903
ag159
aa(lp936
g159
ag1
(g52
g3
Ntp937
Rp938
(dp939
g15
(lp940
sg17
I8272548383636255167
sg18
Nsg19
(g325
g330
g378
g1
(g11
g3
Ntp941
Rp942
(dp943
g15
(lp944
sg17
I-1461406713421282181
sg18
Nsg19
(g1
(g52
g3
Ntp945
Rp946
(dp947
g15
(lp948
sg17
I-9049459404066889070
sg18
Nsg19
(g459
g114
tp949
sg27
g138
sg78
I01
sbg1
(g52
g3
Ntp950
Rp951
(dp952
g15
(lp953
sg17
I-7894420547045890516
sg18
Nsg19
(g22
g100
g128
tp954
sg27
g138
sg78
I01
sbg739
g1
(g52
g3
Ntp955
Rp956
(dp957
g15
(lp958
sg17
I-2164912974940872492
sg18
Nsg19
(g419
g100
g114
g128
tp959
sg27
g138
sg78
I01
sbtp960
sg27
g140
sg78
I01
sbtp961
sg27
g138
sg78
I01
sbag1
(g52
g3
Ntp962
Rp963
(dp964
g15
(lp965
sg17
I-8031373475964219328
sg18
Nsg19
(g308
g118
g80
g1
(g86
g3
Ntp966
Rp967
(dp968
g15
(lp969
sg18
Nsg19
(g259
g308
tp970
sg27
g136
sg78
I01
sg17
I7049837224092306391
sbg1
(g86
g3
Ntp971
Rp972
(dp973
g15
(lp974
sg18
Nsg19
(g264
g308
tp975
sg27
g136
sg78
I01
sg17
I1621216138051318773
sbg378
g274
g1
(g11
g3
Ntp976
Rp977
(dp978
g15
(lp979
sg17
I-4104696657747353000
sg18
Nsg19
(g1
(g52
g3
Ntp980
Rp981
(dp982
g15
(lp983
sg17
I-8373545269499914639
sg18
Nsg19
(g59
g100
g114
tp984
sg27
g138
sg78
I01
sbg1
(g52
g3
Ntp985
Rp986
(dp987
g15
(lp988
sg17
I2827366863914374686
sg18
Nsg19
(g22
g100
tp989
sg27
g138
sg78
I01
sbg283
tp990
sg27
g140
sg78
I01
sbtp991
sg27
g138
sg78
I01
sbag159
aa(lp992
g159
ag1
(g52
g3
Ntp993
Rp994
(dp995
g15
(lp996
sg17
I8551796001217205966
sg18
Nsg19
(g59
g69
g118
g415
g343
g259
g264
g832
tp997
sg27
g138
sg78
I01
sbag1
(g52
g3
Ntp998
Rp999
(dp1000
g15
(lp1001
sg17
I-1397709862401972474
sg18
Nsg19
(g308
g69
g80
g415
g343
g1
(g11
g3
Ntp1002
Rp1003
(dp1004
g15
(lp1005
sg17
I882608806886209739
sg18
Nsg19
(g1
(g52
g3
Ntp1006
Rp1007
(dp1008
g15
(lp1009
sg17
I-5109974211232511964
sg18
Nsg19
(g22
g100
g469
tp1010
sg27
g138
sg78
I01
sbg1
(g52
g3
Ntp1011
Rp1012
(dp1013
g15
(lp1014
sg17
I4785843616899796530
sg18
Nsg19
(g419
g114
g128
tp1015
sg27
g138
sg78
I01
sbg1
(g52
g3
Ntp1016
Rp1017
(dp1018
g15
(lp1019
sg17
I5773066984243254472
sg18
Nsg19
(g419
g100
g114
tp1020
sg27
g138
sg78
I01
sbg1
(g52
g3
Ntp1021
Rp1022
(dp1023
g15
(lp1024
sg17
I8273023902878595092
sg18
Nsg19
(g22
g128
tp1025
sg27
(dp1026
g41
Nsg85
Nsg43
I00
sg34
I01
sg29
Nsg35
Nsg76
Nsg66
Nsg46
Nsg111
Nsg47
Nsg77
Nsg112
Nsg75
Nssg78
I01
sbtp1027
sg27
g140
sg78
I01
sbtp1028
sg27
g138
sg78
I01
sbag159
aaa(lp1029
(lp1030
g159
ag1
(g52
g3
Ntp1031
Rp1032
(dp1033
g15
(lp1034
sg17
I-5327776684867233334
sg18
Nsg19
(g59
g69
g104
g80
g775
g259
g264
g780
tp1035
sg27
g138
sg78
I01
sbag1
(g52
g3
Ntp1036
Rp1037
(dp1038
g15
(lp1039
sg17
I-7547014956254107545
sg18
Nsg19
(g308
g69
g104
g118
g775
g274
g873
tp1040
sg27
g138
sg78
I01
sbag159
aa(lp1041
g159
ag909
ag1
(g52
g3
Ntp1042
Rp1043
(dp1044
g15
(lp1045
sg17
I-1368003704201813589
sg18
Nsg19
(g59
g104
g118
g80
g378
g274
tp1046
sg27
g138
sg78
I01
sbag159
aa(lp1047
g159
ag1
(g52
g3
Ntp1048
Rp1049
(dp1050
g15
(lp1051
sg17
I8551796001217205966
sg18
Nsg19
(g59
g69
g118
g415
g343
g259
g264
g832
tp1052
sg27
g138
sg78
I01
sbag1
(g52
g3
Ntp1053
Rp1054
(dp1055
g15
(lp1056
sg17
I-1397709862401972474
sg18
Nsg19
(g308
g69
g80
g415
g343
g1003
tp1057
sg27
g138
sg78
I01
sbag159
aa(lp1058
g159
ag1
(g52
g3
Ntp1059
Rp1060
(dp1061
g15
(lp1062
sg17
I1314196005761088751
sg18
Nsg19
(g775
g259
g264
g1
(g11
g3
Ntp1063
Rp1064
(dp1065
g15
(lp1066
sg17
I5422025684350694389
sg18
Nsg19
(g1
(g52
g3
Ntp1067
Rp1068
(dp1069
g15
(lp1070
sg17
I-8109090519144969755
sg18
Nsg19
(g1
(g57
g3
Ntp1071
Rp1072
(dp1073
g24
I1
sg25
I8
sg15
(lp1074
sg17
I6250434625806505775
sg18
Nsg19
(tsg27
(dp1075
g41
I01
sg33
I01
sg43
I01
sg34
I01
sg63
I00
sg30
I00
sg36
I00
sg38
I01
sg66
I01
sg49
Nsg31
I00
sg51
I00
sg46
I01
sg64
I00
sg39
I01
sg35
I01
sg47
I01
sg48
I00
sg40
I01
sg44
I00
ssbg69
g459
g469
g490
tp1076
sg27
g138
sg78
I01
sbg1
(g52
g3
Ntp1077
Rp1078
(dp1079
g15
(lp1080
sg17
I-7987090246188759776
sg18
Nsg19
(g22
g100
g1
(g86
g3
Ntp1081
Rp1082
(dp1083
g15
(lp1084
sg18
Nsg19
(g80
g620
tp1085
sg27
g136
sg78
I01
sg17
I-9054786499779865518
sbtp1086
sg27
g138
sg78
I01
sbg1
(g52
g3
Ntp1087
Rp1088
(dp1089
g15
(lp1090
sg17
I-7750593264414139676
sg18
Nsg19
(g419
g669
g1
(g86
g3
Ntp1091
Rp1092
(dp1093
g15
(lp1094
sg18
Nsg19
(g118
g620
tp1095
sg27
g136
sg78
I01
sg17
I-3910327650689684208
sbg128
tp1096
sg27
g138
sg78
I01
sbg1
(g52
g3
Ntp1097
Rp1098
(dp1099
g15
(lp1100
sg17
I-2129808779627154627
sg18
Nsg19
(g1
(g57
g3
Ntp1101
Rp1102
(dp1103
g24
I1
sg25
I10
sg15
(lp1104
sg17
I6250432103412508129
sg18
Nsg19
(tsg27
(dp1105
g41
I01
sg33
I01
sg43
I01
sg34
I01
sg63
I00
sg30
I00
sg36
I00
sg38
I01
sg66
I01
sg49
Nsg31
I00
sg51
I00
sg46
I01
sg64
I00
sg39
I01
sg35
I01
sg47
I01
sg48
I00
sg40
I01
sg44
I00
ssbg69
g80
g669
g469
tp1106
sg27
g138
sg78
I01
sbg1
(g52
g3
Ntp1107
Rp1108
(dp1109
g15
(lp1110
sg17
I-1101798316432392743
sg18
Nsg19
(g308
g69
g100
g114
g1
(g86
g3
Ntp1111
Rp1112
(dp1113
g15
(lp1114
sg18
Nsg19
(g80
g444
tp1115
sg27
g136
sg78
I01
sg17
I-7494625244137917265
sbtp1116
sg27
g138
sg78
I01
sbg1
(g52
g3
Ntp1117
Rp1118
(dp1119
g15
(lp1120
sg17
I-1088751712232575555
sg18
Nsg19
(g59
g69
g100
g1112
tp1121
sg27
g138
sg78
I01
sbg1
(g52
g3
Ntp1122
Rp1123
(dp1124
g15
(lp1125
sg17
I-484337885349279005
sg18
Nsg19
(g308
g69
g80
g669
g1092
tp1126
sg27
g138
sg78
I01
sbg1
(g86
g3
Ntp1127
Rp1128
(dp1129
g15
(lp1130
sg18
Nsg19
(g80
g1072
tp1131
sg27
g136
sg78
I01
sg17
I391160170373741432
sbg1
(g52
g3
Ntp1132
Rp1133
(dp1134
g15
(lp1135
sg17
I941331377930804764
sg18
Nsg19
(g669
g469
g128
tp1136
sg27
g138
sg78
I01
sbg1
(g52
g3
Ntp1137
Rp1138
(dp1139
g15
(lp1140
sg17
I1500656370728105911
sg18
Nsg19
(g1
(g57
g3
Ntp1141
Rp1142
(dp1143
g24
I1
sg25
I-12
sg15
(lp1144
sg17
I-6250432103414643165
sg18
Nsg19
(tsg27
g350
sbg69
g459
g114
g490
tp1145
sg27
g138
sg78
I01
sbg1
(g52
g3
Ntp1146
Rp1147
(dp1148
g15
(lp1149
sg17
I2047165343477871802
sg18
Nsg19
(g22
g459
g114
g654
tp1150
sg27
g138
sg78
I01
sbg1
(g52
g3
Ntp1151
Rp1152
(dp1153
g15
(lp1154
sg17
I2604769850647368674
sg18
Nsg19
(g1
(g86
g3
Ntp1155
Rp1156
(dp1157
g15
(lp1158
sg18
Nsg19
(g104
g1072
tp1159
sg27
g136
sg78
I01
sg17
I-8125351247511989198
sbg1092
tp1160
sg27
g138
sg78
I01
sbg1
(g52
g3
Ntp1161
Rp1162
(dp1163
g15
(lp1164
sg17
I2806905875549311665
sg18
Nsg19
(g1
(g57
g3
Ntp1165
Rp1166
(dp1167
g24
I1
sg25
I-8
sg15
(lp1168
sg17
I-6250427058626647873
sg18
Nsg19
(tsg27
g350
sbg69
g80
g669
g114
tp1169
sg27
g138
sg78
I01
sbg1
(g52
g3
Ntp1170
Rp1171
(dp1172
g15
(lp1173
sg17
I3510128456309095586
sg18
Nsg19
(g1
(g57
g3
Ntp1174
Rp1175
(dp1176
g24
I1
sg25
I7
sg15
(lp1177
sg17
I6250425797429844112
sg18
Nsg19
(tsg27
(dp1178
g41
I01
sg33
I01
sg43
I01
sg34
I01
sg63
I00
sg30
I00
sg36
I00
sg38
I01
sg66
I01
sg49
Nsg31
I00
sg51
I00
sg46
I01
sg64
I00
sg39
I01
sg35
I01
sg47
I01
sg48
I00
sg40
I01
sg44
I00
ssbg459
g469
g654
tp1179
sg27
g138
sg78
I01
sbg1
(g52
g3
Ntp1180
Rp1181
(dp1182
g15
(lp1183
sg17
I3704817092198451986
sg18
Nsg19
(g444
g100
g114
g1082
tp1184
sg27
g138
sg78
I01
sbg1
(g52
g3
Ntp1185
Rp1186
(dp1187
g15
(lp1188
sg17
I7180340884565975063
sg18
Nsg19
(g463
g69
g459
g490
tp1189
sg27
g138
sg78
I01
sbtp1190
sg27
g140
sg78
I01
sbtp1191
sg27
g138
sg78
I01
sbag1
(g52
g3
Ntp1192
Rp1193
(dp1194
g15
(lp1195
sg17
I1645761566847240484
sg18
Nsg19
(g59
g118
g775
g274
g1
(g11
g3
Ntp1196
Rp1197
(dp1198
g15
(lp1199
sg17
I7439996853453897323
sg18
Nsg19
(g1
(g52
g3
Ntp1200
Rp1201
(dp1202
g15
(lp1203
sg17
I-7006747765001333046
sg18
Nsg19
(g59
g69
g669
g114
tp1204
sg27
g138
sg78
I01
sbg1
(g52
g3
Ntp1205
Rp1206
(dp1207
g15
(lp1208
sg17
I-6487652531137675259
sg18
Nsg19
(g459
g469
g490
tp1209
sg27
g138
sg78
I01
sbg1
(g52
g3
Ntp1210
Rp1211
(dp1212
g15
(lp1213
sg17
I-4833270392431754078
sg18
Nsg19
(g1072
g69
g459
g114
g128
tp1214
sg27
g138
sg78
I01
sbg1
(g52
g3
Ntp1215
Rp1216
(dp1217
g15
(lp1218
sg17
I-4572807785364620768
sg18
Nsg19
(g635
g69
g459
g128
tp1219
sg27
g138
sg78
I01
sbg1
(g52
g3
Ntp1220
Rp1221
(dp1222
g15
(lp1223
sg17
I-3006480899154156519
sg18
Nsg19
(g100
g1112
tp1224
sg27
g138
sg78
I01
sbg1
(g52
g3
Ntp1225
Rp1226
(dp1227
g15
(lp1228
sg17
I-579211118862208546
sg18
Nsg19
(g59
g459
g114
g490
tp1229
sg27
g138
sg78
I01
sbg1
(g52
g3
Ntp1230
Rp1231
(dp1232
g15
(lp1233
sg17
I2909589429374882164
sg18
Nsg19
(g635
g69
g459
g469
g128
tp1234
sg27
g138
sg78
I01
sbg1
(g52
g3
Ntp1235
Rp1236
(dp1237
g15
(lp1238
sg17
I3062295343023824036
sg18
Nsg19
(g308
g69
g669
g469
tp1239
sg27
g138
sg78
I01
sbg1
(g52
g3
Ntp1240
Rp1241
(dp1242
g15
(lp1243
sg17
I3088458965599414604
sg18
Nsg19
(g59
g69
g100
g114
g654
tp1244
sg27
g138
sg78
I01
sbg1
(g52
g3
Ntp1245
Rp1246
(dp1247
g15
(lp1248
sg17
I7892175882064377058
sg18
Nsg19
(g308
g69
g100
g654
tp1249
sg27
g138
sg78
I01
sbg1
(g52
g3
Ntp1250
Rp1251
(dp1252
g15
(lp1253
sg17
I8199263378880668787
sg18
Nsg19
(g80
g669
g469
tp1254
sg27
g138
sg78
I01
sbg1
(g86
g3
Ntp1255
Rp1256
(dp1257
g15
(lp1258
sg18
Nsg19
(g80
g1175
tp1259
sg27
g136
sg78
I01
sg17
I8604268232334264645
sbg1
(g52
g3
Ntp1260
Rp1261
(dp1262
g15
(lp1263
sg17
I8901859699134592498
sg18
Nsg19
(g59
g100
g114
g1112
tp1264
sg27
g138
sg78
I01
sbtp1265
sg27
g140
sg78
I01
sbtp1266
sg27
g138
sg78
I01
sbag159
aaaa(lp1267
(lp1268
(lp1269
g159
ag1
(g52
g3
Ntp1270
Rp1271
(dp1272
g15
(lp1273
sg17
I-3648958637301867901
sg18
Nsg19
(g308
g69
g775
g1
(g11
g3
Ntp1274
Rp1275
(dp1276
g15
(lp1277
sg17
I-7744635223712411293
sg18
Nsg19
(g1
(g52
g3
Ntp1278
Rp1279
(dp1280
g15
(lp1281
sg17
I-7537824935036825748
sg18
Nsg19
(g59
g100
g490
tp1282
sg27
g138
sg78
I01
sbg440
g1
(g52
g3
Ntp1283
Rp1284
(dp1285
g15
(lp1286
sg17
I-3344799141732095464
sg18
Nsg19
(g635
g80
g459
g114
tp1287
sg27
g138
sg78
I01
sbg1
(g52
g3
Ntp1288
Rp1289
(dp1290
g15
(lp1291
sg17
I-2391078142295692379
sg18
Nsg19
(g347
g69
g654
tp1292
sg27
g138
sg78
I01
sbg1
(g52
g3
Ntp1293
Rp1294
(dp1295
g15
(lp1296
sg17
I-2318887713831182918
sg18
Nsg19
(g635
g100
g114
g490
tp1297
sg27
g138
sg78
I01
sbg455
g1
(g52
g3
Ntp1298
Rp1299
(dp1300
g15
(lp1301
sg17
I7319179077211209423
sg18
Nsg19
(g22
g69
g459
g469
tp1302
sg27
g138
sg78
I01
sbg1
(g52
g3
Ntp1303
Rp1304
(dp1305
g15
(lp1306
sg17
I8896007703389966320
sg18
Nsg19
(g1072
g69
g100
g114
g128
tp1307
sg27
g138
sg78
I01
sbtp1308
sg27
g140
sg78
I01
sbtp1309
sg27
g138
sg78
I01
sbag1
(g52
g3
Ntp1310
Rp1311
(dp1312
g15
(lp1313
sg17
I-8144760639276726437
sg18
Nsg19
(g635
g69
g118
g100
g775
g810
g509
tp1314
sg27
g138
sg78
I01
sbag159
aa(lp1315
g159
ag1
(g52
g3
Ntp1316
Rp1317
(dp1318
g15
(lp1319
sg17
I-1906572723793204435
sg18
Nsg19
(g59
g69
g80
g343
g852
tp1320
sg27
g138
sg78
I01
sbag1
(g52
g3
Ntp1321
Rp1322
(dp1323
g15
(lp1324
sg17
I-5541040044613746365
sg18
Nsg19
(g59
g69
g118
g100
g343
g832
tp1325
sg27
g138
sg78
I01
sbag159
aa(lp1326
g159
ag159
ag159
ag159
aa(lp1327
g159
ag1
(g52
g3
Ntp1328
Rp1329
(dp1330
g15
(lp1331
sg17
I5546565913441363534
sg18
Nsg19
(g59
g69
g104
g775
g259
g264
g1275
tp1332
sg27
g138
sg78
I01
sbag1
(g52
g3
Ntp1333
Rp1334
(dp1335
g15
(lp1336
sg17
I-6444805730350130840
sg18
Nsg19
(g308
g69
g104
g118
g775
g509
g873
tp1337
sg27
g138
sg78
I01
sbag159
aaa(lp1338
(lp1339
g159
ag1
(g52
g3
Ntp1340
Rp1341
(dp1342
g15
(lp1343
sg17
I-1906572723793204435
sg18
Nsg19
(g59
g69
g80
g343
g852
tp1344
sg27
g138
sg78
I01
sbag1
(g52
g3
Ntp1345
Rp1346
(dp1347
g15
(lp1348
sg17
I-5541040044613746365
sg18
Nsg19
(g59
g69
g118
g100
g343
g832
tp1349
sg27
g138
sg78
I01
sbag159
aa(lp1350
g159
ag159
ag159
ag159
aa(lp1351
g159
ag1
(g52
g3
Ntp1352
Rp1353
(dp1354
g15
(lp1355
sg17
I-2521093188066171265
sg18
Nsg19
(g308
g118
g80
g100
g378
tp1356
sg27
g138
sg78
I01
sbag903
ag159
aa(lp1357
g159
ag1
(g52
g3
Ntp1358
Rp1359
(dp1360
g15
(lp1361
sg17
I5047388811074185175
sg18
Nsg19
(g22
g104
g343
g259
g264
g1
(g11
g3
Ntp1362
Rp1363
(dp1364
g15
(lp1365
sg17
I-7189913783974778993
sg18
Nsg19
(g739
g1
(g52
g3
Ntp1366
Rp1367
(dp1368
g15
(lp1369
sg17
I-4740596357187033893
sg18
Nsg19
(g59
g69
g490
tp1370
sg27
g138
sg78
I01
sbg1
(g52
g3
Ntp1371
Rp1372
(dp1373
g15
(lp1374
sg17
I-3298208508405769201
sg18
Nsg19
(g1
(g57
g3
Ntp1375
Rp1376
(dp1377
g24
I1
sg25
I-6
sg15
(lp1378
sg17
I-6250429581020645519
sg18
Nsg19
(tsg27
g350
sbg69
g80
g100
g114
tp1379
sg27
g138
sg78
I01
sbg1
(g52
g3
Ntp1380
Rp1381
(dp1382
g15
(lp1383
sg17
I-910838780052953226
sg18
Nsg19
(g22
g459
g469
tp1384
sg27
g138
sg78
I01
sbtp1385
sg27
g140
sg78
I01
sbtp1386
sg27
g138
sg78
I01
sbag1
(g52
g3
Ntp1387
Rp1388
(dp1389
g15
(lp1390
sg17
I-1311909790798404981
sg18
Nsg19
(g59
g104
g118
g343
g1
(g11
g3
Ntp1391
Rp1392
(dp1393
g15
(lp1394
sg17
I4532717936060651633
sg18
Nsg19
(g1
(g52
g3
Ntp1395
Rp1396
(dp1397
g15
(lp1398
sg17
I-8787276215862924827
sg18
Nsg19
(g100
g114
g490
tp1399
sg27
g138
sg78
I01
sbg440
g1
(g52
g3
Ntp1400
Rp1401
(dp1402
g15
(lp1403
sg17
I-4974078864949701829
sg18
Nsg19
(g69
g654
tp1404
sg27
g138
sg78
I01
sbg1
(g52
g3
Ntp1405
Rp1406
(dp1407
g15
(lp1408
sg17
I-4364043955325088693
sg18
Nsg19
(g347
g69
g100
g114
g128
tp1409
sg27
g138
sg78
I01
sbg1
(g52
g3
Ntp1410
Rp1411
(dp1412
g15
(lp1413
sg17
I-3824948610066440441
sg18
Nsg19
(g80
g459
g114
tp1414
sg27
g138
sg78
I01
sbg1
(g52
g3
Ntp1415
Rp1416
(dp1417
g15
(lp1418
sg17
I381033981925089733
sg18
Nsg19
(g22
g69
g459
g114
tp1419
sg27
g138
sg78
I01
sbg1
(g52
g3
Ntp1420
Rp1421
(dp1422
g15
(lp1423
sg17
I5317938176900458595
sg18
Nsg19
(g100
g490
tp1424
sg27
g138
sg78
I01
sbg1
(g52
g3
Ntp1425
Rp1426
(dp1427
g15
(lp1428
sg17
I8305676196445447691
sg18
Nsg19
(g419
g69
g100
g128
tp1429
sg27
g138
sg78
I01
sbtp1430
sg27
g140
sg78
I01
sbtp1431
sg27
g138
sg78
I01
sbag159
aaa(lp1432
(lp1433
g159
ag159
ag159
ag159
aa(lp1434
g159
ag1
(g52
g3
Ntp1435
Rp1436
(dp1437
g15
(lp1438
sg17
I-2521093188066171265
sg18
Nsg19
(g308
g118
g80
g100
g378
tp1439
sg27
g138
sg78
I01
sbag903
ag159
aa(lp1440
g159
ag1
(g52
g3
Ntp1441
Rp1442
(dp1443
g15
(lp1444
sg17
I-4285345935579725448
sg18
Nsg19
(g325
g330
g378
g1
(g11
g3
Ntp1445
Rp1446
(dp1447
g15
(lp1448
sg17
I7796974260715136076
sg18
Nsg19
(g1
(g52
g3
Ntp1449
Rp1450
(dp1451
g15
(lp1452
sg17
I-9049459404066889070
sg18
Nsg19
(g459
g114
tp1453
sg27
g138
sg78
I01
sbg1
(g52
g3
Ntp1454
Rp1455
(dp1456
g15
(lp1457
sg17
I-7894420547045890516
sg18
Nsg19
(g22
g100
g128
tp1458
sg27
g138
sg78
I01
sbg739
g1
(g52
g3
Ntp1459
Rp1460
(dp1461
g15
(lp1462
sg17
I-2164912974940872492
sg18
Nsg19
(g419
g100
g114
g128
tp1463
sg27
g138
sg78
I01
sbg1
(g52
g3
Ntp1464
Rp1465
(dp1466
g15
(lp1467
sg17
I7046387943848892185
sg18
Nsg19
(g635
g69
g80
g100
g114
tp1468
sg27
g138
sg78
I01
sbtp1469
sg27
g140
sg78
I01
sbtp1470
sg27
g138
sg78
I01
sbag1
(g52
g3
Ntp1471
Rp1472
(dp1473
g15
(lp1474
sg17
I-471044241368029825
sg18
Nsg19
(g308
g118
g80
g967
g972
g378
g509
g977
tp1475
sg27
g138
sg78
I01
sbag159
aa(lp1476
g159
ag159
ag159
ag159
aaa(lp1477
(lp1478
g159
ag1
(g52
g3
Ntp1479
Rp1480
(dp1481
g15
(lp1482
sg17
I5546565913441363534
sg18
Nsg19
(g59
g69
g104
g775
g259
g264
g1275
tp1483
sg27
g138
sg78
I01
sbag1
(g52
g3
Ntp1484
Rp1485
(dp1486
g15
(lp1487
sg17
I-6444805730350130840
sg18
Nsg19
(g308
g69
g104
g118
g775
g509
g873
tp1488
sg27
g138
sg78
I01
sbag159
aa(lp1489
g159
ag1359
ag1
(g52
g3
Ntp1490
Rp1491
(dp1492
g15
(lp1493
sg17
I-1311909790798404981
sg18
Nsg19
(g59
g104
g118
g343
g1392
tp1494
sg27
g138
sg78
I01
sbag159
aa(lp1495
g159
ag159
ag159
ag159
aa(lp1496
g159
ag1
(g52
g3
Ntp1497
Rp1498
(dp1499
g15
(lp1500
sg17
I6412839437995370756
sg18
Nsg19
(g775
g259
g264
g1
(g11
g3
Ntp1501
Rp1502
(dp1503
g15
(lp1504
sg17
I-734292277077175706
sg18
Nsg19
(g1
(g52
g3
Ntp1505
Rp1506
(dp1507
g15
(lp1508
sg17
I-7987090246188759776
sg18
Nsg19
(g22
g100
g1082
tp1509
sg27
g138
sg78
I01
sbg1
(g52
g3
Ntp1510
Rp1511
(dp1512
g15
(lp1513
sg17
I-7750593264414139676
sg18
Nsg19
(g419
g669
g1092
g128
tp1514
sg27
g138
sg78
I01
sbg1
(g52
g3
Ntp1515
Rp1516
(dp1517
g15
(lp1518
sg17
I-4773971100741173579
sg18
Nsg19
(g1376
g1
(g86
g3
Ntp1519
Rp1520
(dp1521
g15
(lp1522
sg18
Nsg19
(g69
g59
tp1523
sg27
g136
sg78
I01
sg17
I8185879077432032520
sbg100
g654
tp1524
sg27
g138
sg78
I01
sbg1
(g52
g3
Ntp1525
Rp1526
(dp1527
g15
(lp1528
sg17
I-4110903423529951291
sg18
Nsg19
(g59
g1520
g669
g1092
tp1529
sg27
g138
sg78
I01
sbg1
(g52
g3
Ntp1530
Rp1531
(dp1532
g15
(lp1533
sg17
I-2684090347362041267
sg18
Nsg19
(g1376
g69
g100
g114
g1112
tp1534
sg27
g138
sg78
I01
sbg1
(g52
g3
Ntp1535
Rp1536
(dp1537
g15
(lp1538
sg17
I-2129808779627154627
sg18
Nsg19
(g1102
g69
g80
g669
g469
tp1539
sg27
g138
sg78
I01
sbg1
(g52
g3
Ntp1540
Rp1541
(dp1542
g15
(lp1543
sg17
I-1088751712232575555
sg18
Nsg19
(g59
g69
g100
g1112
tp1544
sg27
g138
sg78
I01
sbg1128
g1133
g1
(g52
g3
Ntp1545
Rp1546
(dp1547
g15
(lp1548
sg17
I1500656370728105911
sg18
Nsg19
(g1142
g69
g459
g114
g490
tp1549
sg27
g138
sg78
I01
sbg1
(g52
g3
Ntp1550
Rp1551
(dp1552
g15
(lp1553
sg17
I2047165343477871802
sg18
Nsg19
(g22
g459
g114
g654
tp1554
sg27
g138
sg78
I01
sbg1152
g1
(g52
g3
Ntp1555
Rp1556
(dp1557
g15
(lp1558
sg17
I2806905875549311665
sg18
Nsg19
(g1166
g69
g80
g669
g114
tp1559
sg27
g138
sg78
I01
sbg1
(g52
g3
Ntp1560
Rp1561
(dp1562
g15
(lp1563
sg17
I3510128456309095586
sg18
Nsg19
(g1175
g459
g469
g654
tp1564
sg27
g138
sg78
I01
sbg1
(g52
g3
Ntp1565
Rp1566
(dp1567
g15
(lp1568
sg17
I3646984255593329261
sg18
Nsg19
(g620
g1520
g100
g114
g654
tp1569
sg27
g138
sg78
I01
sbg1
(g52
g3
Ntp1570
Rp1571
(dp1572
g15
(lp1573
sg17
I3692403546352013463
sg18
Nsg19
(g1376
g69
g80
g669
g1092
tp1574
sg27
g138
sg78
I01
sbg1
(g52
g3
Ntp1575
Rp1576
(dp1577
g15
(lp1578
sg17
I3704817092198451986
sg18
Nsg19
(g444
g100
g114
g1082
tp1579
sg27
g138
sg78
I01
sbg1
(g52
g3
Ntp1580
Rp1581
(dp1582
g15
(lp1583
sg17
I6914396245002808011
sg18
Nsg19
(g1
(g57
g3
Ntp1584
Rp1585
(dp1586
g24
I1
sg25
I16
sg15
(lp1587
sg17
I6250444715382496359
sg18
Nsg19
(tsg27
g350
sbg1520
g459
g114
g128
tp1588
sg27
g138
sg78
I01
sbg1
(g52
g3
Ntp1589
Rp1590
(dp1591
g15
(lp1592
sg17
I7180340884565975063
sg18
Nsg19
(g463
g69
g459
g490
tp1593
sg27
g138
sg78
I01
sbg1
(g52
g3
Ntp1594
Rp1595
(dp1596
g15
(lp1597
sg17
I7536402093567138399
sg18
Nsg19
(g308
g1520
g669
g469
tp1598
sg27
g138
sg78
I01
sbg1
(g52
g3
Ntp1599
Rp1600
(dp1601
g15
(lp1602
sg17
I9179323730949825233
sg18
Nsg19
(g1
(g57
g3
Ntp1603
Rp1604
(dp1605
g24
I1
sg25
I-16
sg15
(lp1606
sg17
I-6250437148202638457
sg18
Nsg19
(tsg27
g350
sbg1520
g459
g469
g128
tp1607
sg27
g138
sg78
I01
sbtp1608
sg27
g140
sg78
I01
sbtp1609
sg27
g138
sg78
I01
sbag1
(g52
g3
Ntp1610
Rp1611
(dp1612
g15
(lp1613
sg17
I-2267752618253713893
sg18
Nsg19
(g59
g118
g775
g509
g1197
tp1614
sg27
g138
sg78
I01
sbag159
aaaa(lp1615
(lp1616
(lp1617
g159
ag1
(g52
g3
Ntp1618
Rp1619
(dp1620
g15
(lp1621
sg17
I-2647912319332768574
sg18
Nsg19
(g59
g69
g118
g100
g775
g259
g264
g1
(g11
g3
Ntp1622
Rp1623
(dp1624
g15
(lp1625
sg17
I-1367322003854812493
sg18
Nsg19
(g1
(g52
g3
Ntp1626
Rp1627
(dp1628
g15
(lp1629
sg17
I-4381294389665899010
sg18
Nsg19
(g22
g100
g114
tp1630
sg27
g138
sg78
I01
sbg1
(g52
g3
Ntp1631
Rp1632
(dp1633
g15
(lp1634
sg17
I1520753265437385144
sg18
Nsg19
(g444
g128
tp1635
sg27
g138
sg78
I01
sbtp1636
sg27
g140
sg78
I01
sbtp1637
sg27
g138
sg78
I01
sbag1
(g52
g3
Ntp1638
Rp1639
(dp1640
g15
(lp1641
sg17
I-587419266033383690
sg18
Nsg19
(g308
g69
g80
g100
g775
g1
(g11
g3
Ntp1642
Rp1643
(dp1644
g15
(lp1645
sg17
I6912228282816824693
sg18
Nsg19
(g1
(g52
g3
Ntp1646
Rp1647
(dp1648
g15
(lp1649
sg17
I-6774243112696269016
sg18
Nsg19
(g347
g100
g469
tp1650
sg27
g138
sg78
I01
sbg1
(g52
g3
Ntp1651
Rp1652
(dp1653
g15
(lp1654
sg17
I1331631892575608474
sg18
Nsg19
(g444
g100
g114
tp1655
sg27
g138
sg78
I01
sbg1
(g52
g3
Ntp1656
Rp1657
(dp1658
g15
(lp1659
sg17
I4785843616899796530
sg18
Nsg19
(g419
g114
g128
tp1660
sg27
g138
sg78
I01
sbg1022
tp1661
sg27
g140
sg78
I01
sbtp1662
sg27
g138
sg78
I01
sbag159
aa(lp1663
g159
ag159
ag159
ag159
aa(lp1664
g159
ag159
ag159
ag159
aa(lp1665
g159
ag1
(g52
g3
Ntp1666
Rp1667
(dp1668
g15
(lp1669
sg17
I-647069018772180231
sg18
Nsg19
(g59
g69
g104
g118
g775
g259
g264
g1
(g11
g3
Ntp1670
Rp1671
(dp1672
g15
(lp1673
sg17
I3837925041950523371
sg18
Nsg19
(g1
(g52
g3
Ntp1674
Rp1675
(dp1676
g15
(lp1677
sg17
I-7896791723357363540
sg18
Nsg19
(g22
g459
g114
tp1678
sg27
g138
sg78
I01
sbg1
(g52
g3
Ntp1679
Rp1680
(dp1681
g15
(lp1682
sg17
I-3892958000582861880
sg18
Nsg19
(g444
g100
g128
tp1683
sg27
g138
sg78
I01
sbg1
(g52
g3
Ntp1684
Rp1685
(dp1686
g15
(lp1687
sg17
I2126407693310029910
sg18
Nsg19
(g347
g100
g114
g128
tp1688
sg27
g138
sg78
I01
sbg1
(g52
g3
Ntp1689
Rp1690
(dp1691
g15
(lp1692
sg17
I5599424409973236440
sg18
Nsg19
(g419
g654
tp1693
sg27
g138
sg78
I01
sbtp1694
sg27
g140
sg78
I01
sbtp1695
sg27
g138
sg78
I01
sbag1
(g52
g3
Ntp1696
Rp1697
(dp1698
g15
(lp1699
sg17
I-2206583640117806586
sg18
Nsg19
(g308
g69
g104
g80
g775
g274
g1643
tp1700
sg27
g138
sg78
I01
sbag159
aaa(lp1701
(lp1702
g159
ag159
ag159
ag159
aa(lp1703
g159
ag159
ag159
ag159
aa(lp1704
g159
ag1
(g52
g3
Ntp1705
Rp1706
(dp1707
g15
(lp1708
sg17
I6137728671230015868
sg18
Nsg19
(g22
g378
g353
g363
tp1709
sg27
g138
sg78
I01
sbag1
(g52
g3
Ntp1710
Rp1711
(dp1712
g15
(lp1713
sg17
I-2521093188066171265
sg18
Nsg19
(g308
g118
g80
g100
g378
tp1714
sg27
g138
sg78
I01
sbag159
aa(lp1715
g159
ag1
(g52
g3
Ntp1716
Rp1717
(dp1718
g15
(lp1719
sg17
I458905066177203920
sg18
Nsg19
(g59
g104
g118
g80
g378
g259
g264
tp1720
sg27
g138
sg78
I01
sbag1
(g52
g3
Ntp1721
Rp1722
(dp1723
g15
(lp1724
sg17
I2208767051455350606
sg18
Nsg19
(g22
g104
g378
g1
(g11
g3
Ntp1725
Rp1726
(dp1727
g15
(lp1728
sg17
I6879594625826582089
sg18
Nsg19
(g1
(g52
g3
Ntp1729
Rp1730
(dp1731
g15
(lp1732
sg17
I1561717733550808434
sg18
Nsg19
(g100
g469
tp1733
sg27
g138
sg78
I01
sbg1
(g52
g3
Ntp1734
Rp1735
(dp1736
g15
(lp1737
sg17
I4785843616899796530
sg18
Nsg19
(g419
g114
g128
tp1738
sg27
g138
sg78
I01
sbg1
(g52
g3
Ntp1739
Rp1740
(dp1741
g15
(lp1742
sg17
I5878318922862555768
sg18
Nsg19
(g100
g114
tp1743
sg27
g138
sg78
I01
sbg1022
tp1744
sg27
g140
sg78
I01
sbtp1745
sg27
g138
sg78
I01
sbag159
aaa(lp1746
(lp1747
g159
ag159
ag159
ag159
aa(lp1748
g159
ag1706
ag1
(g52
g3
Ntp1749
Rp1750
(dp1751
g15
(lp1752
sg17
I-2521093188066171265
sg18
Nsg19
(g308
g118
g80
g100
g378
tp1753
sg27
g138
sg78
I01
sbag159
aa(lp1754
g159
ag1
(g52
g3
Ntp1755
Rp1756
(dp1757
g15
(lp1758
sg17
I-2521093188066171265
sg18
Nsg19
(g308
g118
g80
g100
g378
tp1759
sg27
g138
sg78
I01
sbag1
(g52
g3
Ntp1760
Rp1761
(dp1762
g15
(lp1763
sg17
I8580571958979953592
sg18
Nsg19
(g967
g972
g378
g274
g1
(g11
g3
Ntp1764
Rp1765
(dp1766
g15
(lp1767
sg17
I5285851407703403621
sg18
Nsg19
(g1
(g52
g3
Ntp1768
Rp1769
(dp1770
g15
(lp1771
sg17
I-4381294389665899010
sg18
Nsg19
(g22
g100
g114
tp1772
sg27
g138
sg78
I01
sbg1
(g52
g3
Ntp1773
Rp1774
(dp1775
g15
(lp1776
sg17
I-2520327964795899902
sg18
Nsg19
(g114
g128
tp1777
sg27
g138
sg78
I01
sbg1
(g52
g3
Ntp1778
Rp1779
(dp1780
g15
(lp1781
sg17
I5023845906392132258
sg18
Nsg19
(g419
g100
g469
tp1782
sg27
g138
sg78
I01
sbg283
tp1783
sg27
g140
sg78
I01
sbtp1784
sg27
g138
sg78
I01
sbag159
aa(lp1785
g159
ag159
ag159
ag159
aaa(lp1786
(lp1787
g159
ag1
(g52
g3
Ntp1788
Rp1789
(dp1790
g15
(lp1791
sg17
I-647069018772180231
sg18
Nsg19
(g59
g69
g104
g118
g775
g259
g264
g1671
tp1792
sg27
g138
sg78
I01
sbag1
(g52
g3
Ntp1793
Rp1794
(dp1795
g15
(lp1796
sg17
I-2206583640117806586
sg18
Nsg19
(g308
g69
g104
g80
g775
g274
g1643
tp1797
sg27
g138
sg78
I01
sbag159
aa(lp1798
g159
ag1
(g52
g3
Ntp1799
Rp1800
(dp1801
g15
(lp1802
sg17
I458905066177203920
sg18
Nsg19
(g59
g104
g118
g80
g378
g259
g264
tp1803
sg27
g138
sg78
I01
sbag1722
ag159
aa(lp1804
g159
ag159
ag159
ag159
aa(lp1805
g159
ag1
(g52
g3
Ntp1806
Rp1807
(dp1808
g15
(lp1809
sg17
I5576792420728987137
sg18
Nsg19
(g308
g118
g100
g1
(g86
g3
Ntp1810
Rp1811
(dp1812
g15
(lp1813
sg18
Nsg19
(g259
g59
tp1814
sg27
g136
sg78
I01
sg17
I-4832302780302205357
sbg1
(g86
g3
Ntp1815
Rp1816
(dp1817
g15
(lp1818
sg18
Nsg19
(g264
g59
tp1819
sg27
g136
sg78
I01
sg17
I1307022146131075449
sbg775
g1
(g11
g3
Ntp1820
Rp1821
(dp1822
g15
(lp1823
sg17
I5119105118458455845
sg18
Nsg19
(g1
(g52
g3
Ntp1824
Rp1825
(dp1826
g15
(lp1827
sg17
I-8847739747684319953
sg18
Nsg19
(g22
g69
g100
g114
g128
tp1828
sg27
g138
sg78
I01
sbg1
(g52
g3
Ntp1829
Rp1830
(dp1831
g15
(lp1832
sg17
I-8058390504058527758
sg18
Nsg19
(g620
g69
g654
tp1833
sg27
g138
sg78
I01
sbg440
g1
(g52
g3
Ntp1834
Rp1835
(dp1836
g15
(lp1837
sg17
I-2954071928034151551
sg18
Nsg19
(g444
g69
g100
g128
tp1838
sg27
g138
sg78
I01
sbg455
g1
(g52
g3
Ntp1839
Rp1840
(dp1841
g15
(lp1842
sg17
I381033981925089733
sg18
Nsg19
(g22
g69
g459
g114
tp1843
sg27
g138
sg78
I01
sbg1
(g52
g3
Ntp1844
Rp1845
(dp1846
g15
(lp1847
sg17
I7059933432222331420
sg18
Nsg19
(g59
g100
g114
g490
tp1848
sg27
g138
sg78
I01
sbg1
(g52
g3
Ntp1849
Rp1850
(dp1851
g15
(lp1852
sg17
I7319179077211209423
sg18
Nsg19
(g22
g69
g459
g469
tp1853
sg27
g138
sg78
I01
sbtp1854
sg27
g140
sg78
I01
sbtp1855
sg27
g138
sg78
I01
sbag1
(g52
g3
Ntp1856
Rp1857
(dp1858
g15
(lp1859
sg17
I-6534679065290719015
sg18
Nsg19
(g22
g775
g1
(g11
g3
Ntp1860
Rp1861
(dp1862
g15
(lp1863
sg17
I7214136484431637
sg18
Nsg19
(g1
(g52
g3
Ntp1864
Rp1865
(dp1866
g15
(lp1867
sg17
I-7987090246188759776
sg18
Nsg19
(g22
g100
g1082
tp1868
sg27
g138
sg78
I01
sbg1
(g52
g3
Ntp1869
Rp1870
(dp1871
g15
(lp1872
sg17
I-7659108540292785822
sg18
Nsg19
(g22
g1
(g86
g3
Ntp1873
Rp1874
(dp1875
g15
(lp1876
sg18
Nsg19
(g80
g1072
tp1877
sg27
g136
sg78
I01
sg17
I391160170373741432
sbtp1878
sg27
g138
sg78
I01
sbg1
(g52
g3
Ntp1879
Rp1880
(dp1881
g15
(lp1882
sg17
I-7424192687650283659
sg18
Nsg19
(g308
g69
g459
g490
tp1883
sg27
g138
sg78
I01
sbg1
(g52
g3
Ntp1884
Rp1885
(dp1886
g15
(lp1887
sg17
I-5733709981588076781
sg18
Nsg19
(g1102
g69
g80
g669
g114
tp1888
sg27
g138
sg78
I01
sbg1
(g52
g3
Ntp1889
Rp1890
(dp1891
g15
(lp1892
sg17
I-4023643766492291723
sg18
Nsg19
(g1
(g57
g3
Ntp1893
Rp1894
(dp1895
g24
I1
sg25
I-20
sg15
(lp1896
sg17
I-6250442192990633749
sg18
Nsg19
(tsg27
g350
sbg69
g100
g469
g1112
tp1897
sg27
g138
sg78
I01
sbg1
(g52
g3
Ntp1898
Rp1899
(dp1900
g15
(lp1901
sg17
I-3135660392300232737
sg18
Nsg19
(g59
g100
g114
g1082
tp1902
sg27
g138
sg78
I01
sbg1
(g52
g3
Ntp1903
Rp1904
(dp1905
g15
(lp1906
sg17
I-2889845837159902140
sg18
Nsg19
(g419
g114
g1874
tp1907
sg27
g138
sg78
I01
sbg1
(g52
g3
Ntp1908
Rp1909
(dp1910
g15
(lp1911
sg17
I-2686400475253041907
sg18
Nsg19
(g308
g69
g80
g669
g1
(g86
g3
Ntp1912
Rp1913
(dp1914
g15
(lp1915
sg18
Nsg19
(g118
g1072
tp1916
sg27
g136
sg78
I01
sg17
I6075978058666054106
sbtp1917
sg27
g138
sg78
I01
sbg1
(g52
g3
Ntp1918
Rp1919
(dp1920
g15
(lp1921
sg17
I-1710526207598870606
sg18
Nsg19
(g444
g459
g1092
g654
tp1922
sg27
g138
sg78
I01
sbg1
(g52
g3
Ntp1923
Rp1924
(dp1925
g15
(lp1926
sg17
I-1585333963786605497
sg18
Nsg19
(g620
g669
g1092
g128
tp1927
sg27
g138
sg78
I01
sbg1
(g52
g3
Ntp1928
Rp1929
(dp1930
g15
(lp1931
sg17
I-1006004182104381592
sg18
Nsg19
(g1156
g1913
tp1932
sg27
g138
sg78
I01
sbg1
(g52
g3
Ntp1933
Rp1934
(dp1935
g15
(lp1936
sg17
I-498055585739114785
sg18
Nsg19
(g1
(g57
g3
Ntp1937
Rp1938
(dp1939
g24
I1
sg25
I-14
sg15
(lp1940
sg17
I-6250439670596636103
sg18
Nsg19
(tsg27
g350
sbg69
g459
g469
g490
tp1941
sg27
g138
sg78
I01
sbg1
(g52
g3
Ntp1942
Rp1943
(dp1944
g15
(lp1945
sg17
I-484337885349279005
sg18
Nsg19
(g308
g69
g80
g669
g1092
tp1946
sg27
g138
sg78
I01
sbg1
(g52
g3
Ntp1947
Rp1948
(dp1949
g15
(lp1950
sg17
I-278202804888270495
sg18
Nsg19
(g1
(g57
g3
Ntp1951
Rp1952
(dp1953
g24
I1
sg25
I26
sg15
(lp1954
sg17
I6250452282564489297
sg18
Nsg19
(tsg27
g350
sbg69
g459
g114
g490
tp1955
sg27
g138
sg78
I01
sbg1
(g52
g3
Ntp1956
Rp1957
(dp1958
g15
(lp1959
sg17
I-31593291959543930
sg18
Nsg19
(g1175
g100
g469
g1082
tp1960
sg27
g138
sg78
I01
sbg1133
g1
(g52
g3
Ntp1961
Rp1962
(dp1963
g15
(lp1964
sg17
I2047165343477871802
sg18
Nsg19
(g22
g459
g114
g654
tp1965
sg27
g138
sg78
I01
sbg1152
g1
(g52
g3
Ntp1966
Rp1967
(dp1968
g15
(lp1969
sg17
I3751358999079500515
sg18
Nsg19
(g635
g69
g100
g1112
tp1970
sg27
g138
sg78
I01
sbg1
(g52
g3
Ntp1971
Rp1972
(dp1973
g15
(lp1974
sg17
I4072564480640505503
sg18
Nsg19
(g1
(g57
g3
Ntp1975
Rp1976
(dp1977
g24
I1
sg25
I24
sg15
(lp1978
sg17
I6250454804958486943
sg18
Nsg19
(tsg27
g350
sbg69
g100
g114
g1112
tp1979
sg27
g138
sg78
I01
sbg1
(g52
g3
Ntp1980
Rp1981
(dp1982
g15
(lp1983
sg17
I4705115035308785997
sg18
Nsg19
(g1376
g69
g80
g669
g469
tp1984
sg27
g138
sg78
I01
sbg1
(g52
g3
Ntp1985
Rp1986
(dp1987
g15
(lp1988
sg17
I6890018681675070920
sg18
Nsg19
(g669
g1913
g128
tp1989
sg27
g138
sg78
I01
sbg1
(g52
g3
Ntp1990
Rp1991
(dp1992
g15
(lp1993
sg17
I8800972708913682481
sg18
Nsg19
(g1
(g57
g3
Ntp1994
Rp1995
(dp1996
g24
I1
sg25
I-10
sg15
(lp1997
sg17
I-6250434625808640811
sg18
Nsg19
(tsg27
g350
sbg69
g459
g1092
g490
tp1998
sg27
g138
sg78
I01
sbg1
(g52
g3
Ntp1999
Rp2000
(dp2001
g15
(lp2002
sg17
I8956130740471916251
sg18
Nsg19
(g1072
g459
g469
g654
tp2003
sg27
g138
sg78
I01
sbtp2004
sg27
g140
sg78
I01
sbtp2005
sg27
g138
sg78
I01
sbag159
aaaa(lp2006
(lp2007
(lp2008
g159
ag1
(g52
g3
Ntp2009
Rp2010
(dp2011
g15
(lp2012
sg17
I-7788132641953915528
sg18
Nsg19
(g463
g69
g104
g80
g775
g1
(g11
g3
Ntp2013
Rp2014
(dp2015
g15
(lp2016
sg17
I-8300874969735264034
sg18
Nsg19
(g1
(g52
g3
Ntp2017
Rp2018
(dp2019
g15
(lp2020
sg17
I1814443120635856797
sg18
Nsg19
(g308
g100
g114
tp2021
sg27
g138
sg78
I01
sbg283
tp2022
sg27
g140
sg78
I01
sbtp2023
sg27
g138
sg78
I01
sbag1
(g52
g3
Ntp2024
Rp2025
(dp2026
g15
(lp2027
sg17
I1245525246022420138
sg18
Nsg19
(g463
g69
g118
g415
g775
g810
tp2028
sg27
g138
sg78
I01
sbag159
aa(lp2029
g159
ag159
ag159
ag159
aa(lp2030
g159
ag1
(g52
g3
Ntp2031
Rp2032
(dp2033
g15
(lp2034
sg17
I6580754167680937656
sg18
Nsg19
(g308
g69
g104
g118
g325
g330
g343
g832
tp2035
sg27
g138
sg78
I01
sbag1
(g52
g3
Ntp2036
Rp2037
(dp2038
g15
(lp2039
sg17
I3645263333371905334
sg18
Nsg19
(g308
g69
g104
g80
g967
g972
g343
g1
(g11
g3
Ntp2040
Rp2041
(dp2042
g15
(lp2043
sg17
I5659690275245651507
sg18
Nsg19
(g1
(g52
g3
Ntp2044
Rp2045
(dp2046
g15
(lp2047
sg17
I-4370870771353999742
sg18
Nsg19
(g347
g100
g114
tp2048
sg27
g138
sg78
I01
sbg1774
g1
(g52
g3
Ntp2049
Rp2050
(dp2051
g15
(lp2052
sg17
I-2495923370154096688
sg18
Nsg19
(g444
g100
g469
tp2053
sg27
g138
sg78
I01
sbg283
tp2054
sg27
g140
sg78
I01
sbtp2055
sg27
g138
sg78
I01
sbag159
aa(lp2056
g159
ag1
(g52
g3
Ntp2057
Rp2058
(dp2059
g15
(lp2060
sg17
I8190861060906364859
sg18
Nsg19
(g635
g69
g80
g100
g775
g259
g264
g2014
tp2061
sg27
g138
sg78
I01
sbag1
(g52
g3
Ntp2062
Rp2063
(dp2064
g15
(lp2065
sg17
I8168208247880887457
sg18
Nsg19
(g59
g69
g118
g100
g775
g873
tp2066
sg27
g138
sg78
I01
sbag159
aaa(lp2067
(lp2068
g159
ag159
ag159
ag159
aa(lp2069
g159
ag159
ag159
ag159
aa(lp2070
g159
ag1
(g52
g3
Ntp2071
Rp2072
(dp2073
g15
(lp2074
sg17
I4525226515093113492
sg18
Nsg19
(g308
g104
g118
g80
g325
g330
g378
tp2075
sg27
g138
sg78
I01
sbag1
(g52
g3
Ntp2076
Rp2077
(dp2078
g15
(lp2079
sg17
I-7293921886791441346
sg18
Nsg19
(g22
g104
g967
g972
g378
g1765
tp2080
sg27
g138
sg78
I01
sbag159
aa(lp2081
g159
ag1706
ag1
(g52
g3
Ntp2082
Rp2083
(dp2084
g15
(lp2085
sg17
I-2521093188066171265
sg18
Nsg19
(g308
g118
g80
g100
g378
tp2086
sg27
g138
sg78
I01
sbag159
aaa(lp2087
(lp2088
g159
ag1
(g52
g3
Ntp2089
Rp2090
(dp2091
g15
(lp2092
sg17
I6580754167680937656
sg18
Nsg19
(g308
g69
g104
g118
g325
g330
g343
g832
tp2093
sg27
g138
sg78
I01
sbag1
(g52
g3
Ntp2094
Rp2095
(dp2096
g15
(lp2097
sg17
I3645263333371905334
sg18
Nsg19
(g308
g69
g104
g80
g967
g972
g343
g2041
tp2098
sg27
g138
sg78
I01
sbag159
aa(lp2099
g159
ag1
(g52
g3
Ntp2100
Rp2101
(dp2102
g15
(lp2103
sg17
I4525226515093113492
sg18
Nsg19
(g308
g104
g118
g80
g325
g330
g378
tp2104
sg27
g138
sg78
I01
sbag2077
ag159
aa(lp2105
g159
ag1
(g52
g3
Ntp2106
Rp2107
(dp2108
g15
(lp2109
sg17
I-881731441570126967
sg18
Nsg19
(g104
g325
g330
g378
g353
g363
tp2110
sg27
g138
sg78
I01
sbag1
(g52
g3
Ntp2111
Rp2112
(dp2113
g15
(lp2114
sg17
I-3086925371665685828
sg18
Nsg19
(g59
g104
g118
g80
g967
g972
g378
g977
tp2115
sg27
g138
sg78
I01
sbag159
aa(lp2116
g159
ag1
(g52
g3
Ntp2117
Rp2118
(dp2119
g15
(lp2120
sg17
I-5541040044613746365
sg18
Nsg19
(g59
g69
g118
g100
g343
g832
tp2121
sg27
g138
sg78
I01
sbag1
(g52
g3
Ntp2122
Rp2123
(dp2124
g15
(lp2125
sg17
I1297723579361307798
sg18
Nsg19
(g22
g967
g972
g343
g1
(g11
g3
Ntp2126
Rp2127
(dp2128
g15
(lp2129
sg17
I-5792823704637854909
sg18
Nsg19
(g616
g1
(g52
g3
Ntp2130
Rp2131
(dp2132
g15
(lp2133
sg17
I-8978264015221674157
sg18
Nsg19
(g59
g69
g100
g490
tp2134
sg27
g138
sg78
I01
sbg1
(g52
g3
Ntp2135
Rp2136
(dp2137
g15
(lp2138
sg17
I-7888798593867191730
sg18
Nsg19
(g114
g1082
tp2139
sg27
g138
sg78
I01
sbg1
(g52
g3
Ntp2140
Rp2141
(dp2142
g15
(lp2143
sg17
I-6563836977158842207
sg18
Nsg19
(g1376
g69
g80
g459
g1092
tp2144
sg27
g138
sg78
I01
sbg1
(g52
g3
Ntp2145
Rp2146
(dp2147
g15
(lp2148
sg17
I-5241062168079163039
sg18
Nsg19
(g635
g69
g100
g114
g490
tp2149
sg27
g138
sg78
I01
sbg1
(g52
g3
Ntp2150
Rp2151
(dp2152
g15
(lp2153
sg17
I-4213904183513693371
sg18
Nsg19
(g1
(g57
g3
Ntp2154
Rp2155
(dp2156
g24
I1
sg25
I12
sg15
(lp2157
sg17
I6250439670594501067
sg18
Nsg19
(tsg27
g350
sbg69
g80
g459
g469
tp2158
sg27
g138
sg78
I01
sbg1
(g52
g3
Ntp2159
Rp2160
(dp2161
g15
(lp2162
sg17
I-4152966368565603532
sg18
Nsg19
(g419
g459
g469
g128
tp2163
sg27
g138
sg78
I01
sbg1
(g52
g3
Ntp2164
Rp2165
(dp2166
g15
(lp2167
sg17
I-2247821120453517630
sg18
Nsg19
(g669
g1913
tp2168
sg27
g138
sg78
I01
sbg1
(g52
g3
Ntp2169
Rp2170
(dp2171
g15
(lp2172
sg17
I-1732469109225582610
sg18
Nsg19
(g419
g100
g114
g654
tp2173
sg27
g138
sg78
I01
sbg1
(g52
g3
Ntp2174
Rp2175
(dp2176
g15
(lp2177
sg17
I2372138637515960449
sg18
Nsg19
(g59
g69
g100
g469
g490
tp2178
sg27
g138
sg78
I01
sbg1
(g52
g3
Ntp2179
Rp2180
(dp2181
g15
(lp2182
sg17
I6754759037399961389
sg18
Nsg19
(g1376
g69
g80
g459
g114
tp2183
sg27
g138
sg78
I01
sbg1
(g52
g3
Ntp2184
Rp2185
(dp2186
g15
(lp2187
sg17
I7640971971105809740
sg18
Nsg19
(g419
g100
g469
g654
tp2188
sg27
g138
sg78
I01
sbg1
(g52
g3
Ntp2189
Rp2190
(dp2191
g15
(lp2192
sg17
I7976915563989860040
sg18
Nsg19
(g669
g1092
tp2193
sg27
g138
sg78
I01
sbg1
(g52
g3
Ntp2194
Rp2195
(dp2196
g15
(lp2197
sg17
I8880023262278693986
sg18
Nsg19
(g419
g459
g1092
g128
tp2198
sg27
g138
sg78
I01
sbtp2199
sg27
g140
sg78
I01
sbtp2200
sg27
g138
sg78
I01
sbag159
aaa(lp2201
(lp2202
g159
ag1
(g52
g3
Ntp2203
Rp2204
(dp2205
g15
(lp2206
sg17
I8190861060906364859
sg18
Nsg19
(g635
g69
g80
g100
g775
g259
g264
g2014
tp2207
sg27
g138
sg78
I01
sbag1
(g52
g3
Ntp2208
Rp2209
(dp2210
g15
(lp2211
sg17
I8168208247880887457
sg18
Nsg19
(g59
g69
g118
g100
g775
g873
tp2212
sg27
g138
sg78
I01
sbag159
aa(lp2213
g159
ag1706
ag1
(g52
g3
Ntp2214
Rp2215
(dp2216
g15
(lp2217
sg17
I-2521093188066171265
sg18
Nsg19
(g308
g118
g80
g100
g378
tp2218
sg27
g138
sg78
I01
sbag159
aa(lp2219
g159
ag1
(g52
g3
Ntp2220
Rp2221
(dp2222
g15
(lp2223
sg17
I-5541040044613746365
sg18
Nsg19
(g59
g69
g118
g100
g343
g832
tp2224
sg27
g138
sg78
I01
sbag2123
ag159
aa(lp2225
g159
ag1
(g52
g3
Ntp2226
Rp2227
(dp2228
g15
(lp2229
sg17
I1665544099691500520
sg18
Nsg19
(g104
g775
g259
g264
g1
(g11
g3
Ntp2230
Rp2231
(dp2232
g15
(lp2233
sg17
I4261892103808296357
sg18
Nsg19
(g616
g1
(g52
g3
Ntp2234
Rp2235
(dp2236
g15
(lp2237
sg17
I-5074907117693163799
sg18
Nsg19
(g1166
g69
g80
g459
g469
tp2238
sg27
g138
sg78
I01
sbg1
(g52
g3
Ntp2239
Rp2240
(dp2241
g15
(lp2242
sg17
I-3847873552707919975
sg18
Nsg19
(g463
g69
g100
g114
g490
tp2243
sg27
g138
sg78
I01
sbg1
(g52
g3
Ntp2244
Rp2245
(dp2246
g15
(lp2247
sg17
I-3769598001866706913
sg18
Nsg19
(g1072
g69
g80
g459
g114
tp2248
sg27
g138
sg78
I01
sbg1
(g52
g3
Ntp2249
Rp2250
(dp2251
g15
(lp2252
sg17
I-2905266756974350304
sg18
Nsg19
(g100
g114
g654
tp2253
sg27
g138
sg78
I01
sbg1
(g52
g3
Ntp2254
Rp2255
(dp2256
g15
(lp2257
sg17
I3757582663277497862
sg18
Nsg19
(g22
g669
g1092
tp2258
sg27
g138
sg78
I01
sbg1
(g52
g3
Ntp2259
Rp2260
(dp2261
g15
(lp2262
sg17
I3982706025157032205
sg18
Nsg19
(g635
g69
g100
g490
tp2263
sg27
g138
sg78
I01
sbg1
(g52
g3
Ntp2264
Rp2265
(dp2266
g15
(lp2267
sg17
I8236837634941764274
sg18
Nsg19
(g22
g459
g469
g128
tp2268
sg27
g138
sg78
I01
sbtp2269
sg27
g140
sg78
I01
sbtp2270
sg27
g138
sg78
I01
sbag1
(g52
g3
Ntp2271
Rp2272
(dp2273
g15
(lp2274
sg17
I8461412877917312146
sg18
Nsg19
(g308
g104
g118
g775
g1197
tp2275
sg27
g138
sg78
I01
sbag159
aaaaa.